CCS PCH C Compiler, Version 5.048, 5967               23-sep-16 09:00

               Filename:   C:\Users\MARCOS\Proyecto_final\Med_pot.X\dist\default\production\Med_pot.X.production.lst

               ROM used:   5418 bytes (17%)
                           Largest free fragment is 27346
               RAM used:   77 (4%) at main() level
                           165 (8%) worst case
               Stack used: 1 locations (0 in main + 1 for interrupts)
               Stack size: 31

*
0000:  GOTO   14FC
*
0008:  MOVWF  04
000A:  MOVFF  FD8,05
000E:  MOVFF  FE0,06
0012:  MOVLB  0
0014:  MOVFF  FE9,0C
0018:  MOVFF  FEA,07
001C:  MOVFF  FE1,08
0020:  MOVFF  FE2,09
0024:  MOVFF  FD9,0A
0028:  MOVFF  FDA,0B
002C:  MOVFF  FF3,12
0030:  MOVFF  FF4,13
0034:  MOVFF  FFA,14
0038:  MOVFF  FF5,15
003C:  MOVFF  FF6,16
0040:  MOVFF  FF7,17
0044:  MOVFF  00,0E
0048:  MOVFF  01,0F
004C:  MOVFF  02,10
0050:  MOVFF  03,11
0054:  BTFSS  FF2.5
0056:  GOTO   0060
005A:  BTFSC  FF2.2
005C:  GOTO   00AE
0060:  MOVFF  0E,00
0064:  MOVFF  0F,01
0068:  MOVFF  10,02
006C:  MOVFF  11,03
0070:  MOVFF  0C,FE9
0074:  MOVFF  07,FEA
0078:  BSF    07.7
007A:  MOVFF  08,FE1
007E:  MOVFF  09,FE2
0082:  MOVFF  0A,FD9
0086:  MOVFF  0B,FDA
008A:  MOVFF  12,FF3
008E:  MOVFF  13,FF4
0092:  MOVFF  14,FFA
0096:  MOVFF  15,FF5
009A:  MOVFF  16,FF6
009E:  MOVFF  17,FF7
00A2:  MOVF   04,W
00A4:  MOVFF  06,FE0
00A8:  MOVFF  05,FD8
00AC:  RETFIE 0
.................... #import(file="build/default/production/main.o") 
.................... #import(file="build/default/production/funciones.o") 
.................... /** 
.................... *	\file main.c 
.................... *	\brief Resumen del contenido del archivo 
.................... *	\details Descripcion detallada del archivo 
.................... *	\author Postemsky Marcos 
.................... *	\date 17-09-2016 11:39:08 
.................... */ 
.................... #include <18F4550.h> 
.................... //////////// Standard Header file for the PIC18F4550 device //////////////// 
.................... /////////////////////////////////////////////////////////////////////////// 
.................... ////        (C) Copyright 1996, 2014 Custom Computer Services          //// 
.................... //// This source code may only be used by licensed users of the CCS C  //// 
.................... //// compiler.  This source code may only be distributed to other      //// 
.................... //// licensed users of the CCS C compiler.  No other use, reproduction //// 
.................... //// or distribution is permitted without written permission.          //// 
.................... //// Derivative programs created using this software in object code    //// 
.................... //// form are not restricted in any way.                               //// 
.................... /////////////////////////////////////////////////////////////////////////// 
.................... #device PIC18F4550 
*
0370:  MOVLW  8E
0372:  MOVWF  00
0374:  MOVFF  80,01
0378:  MOVFF  7F,02
037C:  CLRF   03
037E:  MOVF   01,F
0380:  BNZ   0394
0382:  MOVFF  02,01
0386:  CLRF   02
0388:  MOVLW  08
038A:  SUBWF  00,F
038C:  MOVF   01,F
038E:  BNZ   0394
0390:  CLRF   00
0392:  BRA    03A4
0394:  BCF    FD8.0
0396:  BTFSC  01.7
0398:  BRA    03A2
039A:  RLCF   02,F
039C:  RLCF   01,F
039E:  DECF   00,F
03A0:  BRA    0394
03A2:  BCF    01.7
03A4:  RETURN 0
03A6:  MOVF   x7F,W
03A8:  BTFSC  FD8.2
03AA:  BRA    048E
03AC:  MOVWF  00
03AE:  MOVF   x83,W
03B0:  BTFSC  FD8.2
03B2:  BRA    048E
03B4:  ADDWF  00,F
03B6:  BNC   03C0
03B8:  MOVLW  81
03BA:  ADDWF  00,F
03BC:  BC    048E
03BE:  BRA    03C8
03C0:  MOVLW  7F
03C2:  SUBWF  00,F
03C4:  BNC   048E
03C6:  BZ    048E
03C8:  MOVFF  80,87
03CC:  MOVF   x84,W
03CE:  XORWF  x87,F
03D0:  BSF    x80.7
03D2:  BSF    x84.7
03D4:  MOVF   x82,W
03D6:  MULWF  x86
03D8:  MOVFF  FF4,89
03DC:  MOVF   x81,W
03DE:  MULWF  x85
03E0:  MOVFF  FF4,03
03E4:  MOVFF  FF3,88
03E8:  MULWF  x86
03EA:  MOVF   FF3,W
03EC:  ADDWF  x89,F
03EE:  MOVF   FF4,W
03F0:  ADDWFC x88,F
03F2:  MOVLW  00
03F4:  ADDWFC 03,F
03F6:  MOVF   x82,W
03F8:  MULWF  x85
03FA:  MOVF   FF3,W
03FC:  ADDWF  x89,F
03FE:  MOVF   FF4,W
0400:  ADDWFC x88,F
0402:  MOVLW  00
0404:  CLRF   02
0406:  ADDWFC 03,F
0408:  ADDWFC 02,F
040A:  MOVF   x80,W
040C:  MULWF  x86
040E:  MOVF   FF3,W
0410:  ADDWF  x88,F
0412:  MOVF   FF4,W
0414:  ADDWFC 03,F
0416:  MOVLW  00
0418:  ADDWFC 02,F
041A:  MOVF   x80,W
041C:  MULWF  x85
041E:  MOVF   FF3,W
0420:  ADDWF  03,F
0422:  MOVF   FF4,W
0424:  ADDWFC 02,F
0426:  MOVLW  00
0428:  CLRF   01
042A:  ADDWFC 01,F
042C:  MOVF   x82,W
042E:  MULWF  x84
0430:  MOVF   FF3,W
0432:  ADDWF  x88,F
0434:  MOVF   FF4,W
0436:  ADDWFC 03,F
0438:  MOVLW  00
043A:  ADDWFC 02,F
043C:  ADDWFC 01,F
043E:  MOVF   x81,W
0440:  MULWF  x84
0442:  MOVF   FF3,W
0444:  ADDWF  03,F
0446:  MOVF   FF4,W
0448:  ADDWFC 02,F
044A:  MOVLW  00
044C:  ADDWFC 01,F
044E:  MOVF   x80,W
0450:  MULWF  x84
0452:  MOVF   FF3,W
0454:  ADDWF  02,F
0456:  MOVF   FF4,W
0458:  ADDWFC 01,F
045A:  INCF   00,F
045C:  BTFSC  01.7
045E:  BRA    046A
0460:  RLCF   x88,F
0462:  RLCF   03,F
0464:  RLCF   02,F
0466:  RLCF   01,F
0468:  DECF   00,F
046A:  MOVLW  00
046C:  BTFSS  x88.7
046E:  BRA    0484
0470:  INCF   03,F
0472:  ADDWFC 02,F
0474:  ADDWFC 01,F
0476:  MOVF   01,W
0478:  BNZ   0484
047A:  MOVF   02,W
047C:  BNZ   0484
047E:  MOVF   03,W
0480:  BNZ   0484
0482:  INCF   00,F
0484:  BTFSC  x87.7
0486:  BSF    01.7
0488:  BTFSS  x87.7
048A:  BCF    01.7
048C:  BRA    0496
048E:  CLRF   00
0490:  CLRF   01
0492:  CLRF   02
0494:  CLRF   03
0496:  RETURN 0
0498:  MOVF   5F,W
049A:  BTFSC  FD8.2
049C:  BRA    05E8
049E:  MOVWF  x6B
04A0:  MOVF   x63,W
04A2:  BTFSC  FD8.2
04A4:  BRA    05E8
04A6:  SUBWF  x6B,F
04A8:  BNC   04B4
04AA:  MOVLW  7F
04AC:  ADDWF  x6B,F
04AE:  BTFSC  FD8.0
04B0:  BRA    05E8
04B2:  BRA    04C0
04B4:  MOVLW  81
04B6:  SUBWF  x6B,F
04B8:  BTFSS  FD8.0
04BA:  BRA    05E8
04BC:  BTFSC  FD8.2
04BE:  BRA    05E8
04C0:  MOVFF  6B,00
04C4:  CLRF   01
04C6:  CLRF   02
04C8:  CLRF   03
04CA:  CLRF   x6A
04CC:  MOVFF  60,69
04D0:  BSF    x69.7
04D2:  MOVFF  61,68
04D6:  MOVFF  62,67
04DA:  MOVLW  19
04DC:  MOVWF  x6B
04DE:  MOVF   x66,W
04E0:  SUBWF  x67,F
04E2:  BC    04FE
04E4:  MOVLW  01
04E6:  SUBWF  x68,F
04E8:  BC    04FE
04EA:  SUBWF  x69,F
04EC:  BC    04FE
04EE:  SUBWF  x6A,F
04F0:  BC    04FE
04F2:  INCF   x6A,F
04F4:  INCF   x69,F
04F6:  INCF   x68,F
04F8:  MOVF   x66,W
04FA:  ADDWF  x67,F
04FC:  BRA    054E
04FE:  MOVF   x65,W
0500:  SUBWF  x68,F
0502:  BC    0528
0504:  MOVLW  01
0506:  SUBWF  x69,F
0508:  BC    0528
050A:  SUBWF  x6A,F
050C:  BC    0528
050E:  INCF   x6A,F
0510:  INCF   x69,F
0512:  MOVF   x65,W
0514:  ADDWF  x68,F
0516:  MOVF   x66,W
0518:  ADDWF  x67,F
051A:  BNC   054E
051C:  INCF   x68,F
051E:  BNZ   054E
0520:  INCF   x69,F
0522:  BNZ   054E
0524:  INCF   x6A,F
0526:  BRA    054E
0528:  MOVF   x64,W
052A:  IORLW  80
052C:  SUBWF  x69,F
052E:  BC    054C
0530:  MOVLW  01
0532:  SUBWF  x6A,F
0534:  BC    054C
0536:  INCF   x6A,F
0538:  MOVF   x64,W
053A:  IORLW  80
053C:  ADDWF  x69,F
053E:  MOVF   x65,W
0540:  ADDWF  x68,F
0542:  BNC   0516
0544:  INCF   x69,F
0546:  BNZ   0516
0548:  INCF   x6A,F
054A:  BRA    0516
054C:  BSF    03.0
054E:  DECFSZ x6B,F
0550:  BRA    0554
0552:  BRA    056A
0554:  BCF    FD8.0
0556:  RLCF   x67,F
0558:  RLCF   x68,F
055A:  RLCF   x69,F
055C:  RLCF   x6A,F
055E:  BCF    FD8.0
0560:  RLCF   03,F
0562:  RLCF   02,F
0564:  RLCF   01,F
0566:  RLCF   x6C,F
0568:  BRA    04DE
056A:  BTFSS  x6C.0
056C:  BRA    057A
056E:  BCF    FD8.0
0570:  RRCF   01,F
0572:  RRCF   02,F
0574:  RRCF   03,F
0576:  RRCF   x6C,F
0578:  BRA    057E
057A:  DECF   00,F
057C:  BZ    05E8
057E:  BTFSC  x6C.7
0580:  BRA    05BE
0582:  BCF    FD8.0
0584:  RLCF   x67,F
0586:  RLCF   x68,F
0588:  RLCF   x69,F
058A:  RLCF   x6A,F
058C:  MOVF   x66,W
058E:  SUBWF  x67,F
0590:  BC    05A0
0592:  MOVLW  01
0594:  SUBWF  x68,F
0596:  BC    05A0
0598:  SUBWF  x69,F
059A:  BC    05A0
059C:  SUBWF  x6A,F
059E:  BNC   05D4
05A0:  MOVF   x65,W
05A2:  SUBWF  x68,F
05A4:  BC    05B0
05A6:  MOVLW  01
05A8:  SUBWF  x69,F
05AA:  BC    05B0
05AC:  SUBWF  x6A,F
05AE:  BNC   05D4
05B0:  MOVF   x64,W
05B2:  IORLW  80
05B4:  SUBWF  x69,F
05B6:  BC    05BE
05B8:  MOVLW  01
05BA:  SUBWF  x6A,F
05BC:  BNC   05D4
05BE:  INCF   03,F
05C0:  BNZ   05D4
05C2:  INCF   02,F
05C4:  BNZ   05D4
05C6:  INCF   01,F
05C8:  BNZ   05D4
05CA:  INCF   00,F
05CC:  BZ    05E8
05CE:  RRCF   01,F
05D0:  RRCF   02,F
05D2:  RRCF   03,F
05D4:  MOVFF  60,6B
05D8:  MOVF   x64,W
05DA:  XORWF  x6B,F
05DC:  BTFSS  x6B.7
05DE:  BRA    05E4
05E0:  BSF    01.7
05E2:  BRA    05F0
05E4:  BCF    01.7
05E6:  BRA    05F0
05E8:  CLRF   00
05EA:  CLRF   01
05EC:  CLRF   02
05EE:  CLRF   03
05F0:  RETURN 0
05F2:  MOVLW  80
05F4:  BTFSC  FD8.1
05F6:  XORWF  x84,F
05F8:  CLRF   x89
05FA:  CLRF   x8A
05FC:  MOVFF  80,88
0600:  MOVF   x84,W
0602:  XORWF  x88,F
0604:  MOVF   x7F,W
0606:  BTFSC  FD8.2
0608:  BRA    07C2
060A:  MOVWF  x87
060C:  MOVWF  00
060E:  MOVF   x83,W
0610:  BTFSC  FD8.2
0612:  BRA    07D4
0614:  SUBWF  x87,F
0616:  BTFSC  FD8.2
0618:  BRA    071C
061A:  BNC   0696
061C:  MOVFF  84,8D
0620:  BSF    x8D.7
0622:  MOVFF  85,8C
0626:  MOVFF  86,8B
062A:  CLRF   x8A
062C:  BCF    FD8.0
062E:  RRCF   x8D,F
0630:  RRCF   x8C,F
0632:  RRCF   x8B,F
0634:  RRCF   x8A,F
0636:  DECFSZ x87,F
0638:  BRA    062A
063A:  BTFSS  x88.7
063C:  BRA    0644
063E:  BSF    x89.0
0640:  BRA    07FC
0642:  BCF    x89.0
0644:  BCF    x87.0
0646:  BSF    x89.4
0648:  CLRF   FEA
064A:  MOVLW  82
064C:  MOVWF  FE9
064E:  BRA    0822
0650:  BCF    x89.4
0652:  BTFSC  x88.7
0654:  BRA    066A
0656:  BTFSS  x87.0
0658:  BRA    0680
065A:  RRCF   x8D,F
065C:  RRCF   x8C,F
065E:  RRCF   x8B,F
0660:  RRCF   x8A,F
0662:  INCF   00,F
0664:  BTFSC  FD8.2
0666:  BRA    07F2
0668:  BRA    0680
066A:  BTFSC  x8D.7
066C:  BRA    0686
066E:  BCF    FD8.0
0670:  RLCF   x8A,F
0672:  RLCF   x8B,F
0674:  RLCF   x8C,F
0676:  RLCF   x8D,F
0678:  DECF   00,F
067A:  BTFSC  FD8.2
067C:  BRA    07F2
067E:  BRA    066A
0680:  BSF    x89.6
0682:  BRA    075A
0684:  BCF    x89.6
0686:  MOVFF  80,88
068A:  BTFSS  x80.7
068C:  BRA    0692
068E:  BSF    x8D.7
0690:  BRA    07E4
0692:  BCF    x8D.7
0694:  BRA    07E4
0696:  MOVFF  83,87
069A:  MOVFF  83,00
069E:  MOVF   x7F,W
06A0:  SUBWF  x87,F
06A2:  MOVFF  80,8D
06A6:  BSF    x8D.7
06A8:  MOVFF  81,8C
06AC:  MOVFF  82,8B
06B0:  CLRF   x8A
06B2:  BCF    FD8.0
06B4:  RRCF   x8D,F
06B6:  RRCF   x8C,F
06B8:  RRCF   x8B,F
06BA:  RRCF   x8A,F
06BC:  DECFSZ x87,F
06BE:  BRA    06B0
06C0:  BTFSS  x88.7
06C2:  BRA    06CA
06C4:  BSF    x89.1
06C6:  BRA    07FC
06C8:  BCF    x89.1
06CA:  BCF    x87.0
06CC:  BSF    x89.5
06CE:  CLRF   FEA
06D0:  MOVLW  86
06D2:  MOVWF  FE9
06D4:  BRA    0822
06D6:  BCF    x89.5
06D8:  BTFSC  x88.7
06DA:  BRA    06F0
06DC:  BTFSS  x87.0
06DE:  BRA    0706
06E0:  RRCF   x8D,F
06E2:  RRCF   x8C,F
06E4:  RRCF   x8B,F
06E6:  RRCF   x8A,F
06E8:  INCF   00,F
06EA:  BTFSC  FD8.2
06EC:  BRA    07F2
06EE:  BRA    0706
06F0:  BTFSC  x8D.7
06F2:  BRA    070C
06F4:  BCF    FD8.0
06F6:  RLCF   x8A,F
06F8:  RLCF   x8B,F
06FA:  RLCF   x8C,F
06FC:  RLCF   x8D,F
06FE:  DECF   00,F
0700:  BTFSC  FD8.2
0702:  BRA    07F2
0704:  BRA    06F0
0706:  BSF    x89.7
0708:  BRA    075A
070A:  BCF    x89.7
070C:  MOVFF  84,88
0710:  BTFSS  x84.7
0712:  BRA    0718
0714:  BSF    x8D.7
0716:  BRA    07E4
0718:  BCF    x8D.7
071A:  BRA    07E4
071C:  MOVFF  84,8D
0720:  BSF    x8D.7
0722:  MOVFF  85,8C
0726:  MOVFF  86,8B
072A:  BTFSS  x88.7
072C:  BRA    0736
072E:  BCF    x8D.7
0730:  BSF    x89.2
0732:  BRA    07FC
0734:  BCF    x89.2
0736:  CLRF   x8A
0738:  BCF    x87.0
073A:  CLRF   FEA
073C:  MOVLW  82
073E:  MOVWF  FE9
0740:  BRA    0822
0742:  BTFSC  x88.7
0744:  BRA    077E
0746:  MOVFF  80,88
074A:  BTFSS  x87.0
074C:  BRA    075A
074E:  RRCF   x8D,F
0750:  RRCF   x8C,F
0752:  RRCF   x8B,F
0754:  RRCF   x8A,F
0756:  INCF   00,F
0758:  BZ    07F2
075A:  BTFSS  x8A.7
075C:  BRA    0774
075E:  INCF   x8B,F
0760:  BNZ   0774
0762:  INCF   x8C,F
0764:  BNZ   0774
0766:  INCF   x8D,F
0768:  BNZ   0774
076A:  RRCF   x8D,F
076C:  RRCF   x8C,F
076E:  RRCF   x8B,F
0770:  INCF   00,F
0772:  BZ    07F2
0774:  BTFSC  x89.6
0776:  BRA    0684
0778:  BTFSC  x89.7
077A:  BRA    070A
077C:  BRA    07B6
077E:  MOVLW  80
0780:  XORWF  x8D,F
0782:  BTFSS  x8D.7
0784:  BRA    078E
0786:  BRA    07FC
0788:  MOVFF  84,88
078C:  BRA    07A2
078E:  MOVFF  80,88
0792:  MOVF   x8D,F
0794:  BNZ   07A2
0796:  MOVF   x8C,F
0798:  BNZ   07A2
079A:  MOVF   x8B,F
079C:  BNZ   07A2
079E:  CLRF   00
07A0:  BRA    07E4
07A2:  BTFSC  x8D.7
07A4:  BRA    07B6
07A6:  BCF    FD8.0
07A8:  RLCF   x8A,F
07AA:  RLCF   x8B,F
07AC:  RLCF   x8C,F
07AE:  RLCF   x8D,F
07B0:  DECFSZ 00,F
07B2:  BRA    07A2
07B4:  BRA    07F2
07B6:  BTFSS  x88.7
07B8:  BRA    07BE
07BA:  BSF    x8D.7
07BC:  BRA    07E4
07BE:  BCF    x8D.7
07C0:  BRA    07E4
07C2:  MOVFF  83,00
07C6:  MOVFF  84,8D
07CA:  MOVFF  85,8C
07CE:  MOVFF  86,8B
07D2:  BRA    07E4
07D4:  MOVFF  7F,00
07D8:  MOVFF  80,8D
07DC:  MOVFF  81,8C
07E0:  MOVFF  82,8B
07E4:  MOVFF  8D,01
07E8:  MOVFF  8C,02
07EC:  MOVFF  8B,03
07F0:  BRA    085A
07F2:  CLRF   00
07F4:  CLRF   01
07F6:  CLRF   02
07F8:  CLRF   03
07FA:  BRA    085A
07FC:  CLRF   x8A
07FE:  COMF   x8B,F
0800:  COMF   x8C,F
0802:  COMF   x8D,F
0804:  COMF   x8A,F
0806:  INCF   x8A,F
0808:  BNZ   0814
080A:  INCF   x8B,F
080C:  BNZ   0814
080E:  INCF   x8C,F
0810:  BNZ   0814
0812:  INCF   x8D,F
0814:  BTFSC  x89.0
0816:  BRA    0642
0818:  BTFSC  x89.1
081A:  BRA    06C8
081C:  BTFSC  x89.2
081E:  BRA    0734
0820:  BRA    0788
0822:  MOVF   FEF,W
0824:  ADDWF  x8B,F
0826:  BNC   0832
0828:  INCF   x8C,F
082A:  BNZ   0832
082C:  INCF   x8D,F
082E:  BTFSC  FD8.2
0830:  BSF    x87.0
0832:  MOVF   FED,F
0834:  MOVF   FEF,W
0836:  ADDWF  x8C,F
0838:  BNC   0840
083A:  INCF   x8D,F
083C:  BTFSC  FD8.2
083E:  BSF    x87.0
0840:  MOVF   FED,F
0842:  MOVF   FEF,W
0844:  BTFSC  FEF.7
0846:  BRA    084A
0848:  XORLW  80
084A:  ADDWF  x8D,F
084C:  BTFSC  FD8.0
084E:  BSF    x87.0
0850:  BTFSC  x89.4
0852:  BRA    0650
0854:  BTFSC  x89.5
0856:  BRA    06D6
0858:  BRA    0742
085A:  RETURN 0
085C:  MOVFF  7C,83
0860:  MOVF   x80,W
0862:  XORWF  x83,F
0864:  BTFSS  x83.7
0866:  BRA    0872
0868:  BCF    FD8.2
086A:  BCF    FD8.0
086C:  BTFSC  x7C.7
086E:  BSF    FD8.0
0870:  BRA    08D0
0872:  MOVFF  7C,83
0876:  MOVFF  7F,84
087A:  MOVF   x7B,W
087C:  SUBWF  x84,F
087E:  BZ    088C
0880:  BTFSS  x83.7
0882:  BRA    08D0
0884:  MOVF   FD8,W
0886:  XORLW  01
0888:  MOVWF  FD8
088A:  BRA    08D0
088C:  MOVFF  80,84
0890:  MOVF   x7C,W
0892:  SUBWF  x84,F
0894:  BZ    08A2
0896:  BTFSS  x83.7
0898:  BRA    08D0
089A:  MOVF   FD8,W
089C:  XORLW  01
089E:  MOVWF  FD8
08A0:  BRA    08D0
08A2:  MOVFF  81,84
08A6:  MOVF   x7D,W
08A8:  SUBWF  x84,F
08AA:  BZ    08B8
08AC:  BTFSS  x83.7
08AE:  BRA    08D0
08B0:  MOVF   FD8,W
08B2:  XORLW  01
08B4:  MOVWF  FD8
08B6:  BRA    08D0
08B8:  MOVFF  82,84
08BC:  MOVF   x7E,W
08BE:  SUBWF  x84,F
08C0:  BZ    08CE
08C2:  BTFSS  x83.7
08C4:  BRA    08D0
08C6:  MOVF   FD8,W
08C8:  XORLW  01
08CA:  MOVWF  FD8
08CC:  BRA    08D0
08CE:  BCF    FD8.0
08D0:  RETURN 0
*
09DC:  MOVLW  8E
09DE:  MOVWF  00
09E0:  MOVF   x7B,W
09E2:  SUBWF  00,F
09E4:  MOVFF  7C,02
09E8:  MOVFF  7D,01
09EC:  BSF    02.7
09EE:  MOVF   00,F
09F0:  BZ    0A04
09F2:  BCF    FD8.0
09F4:  MOVF   02,F
09F6:  BNZ   09FC
09F8:  MOVF   01,F
09FA:  BZ    0A04
09FC:  RRCF   02,F
09FE:  RRCF   01,F
0A00:  DECFSZ 00,F
0A02:  BRA    09F2
0A04:  BTFSS  x7C.7
0A06:  BRA    0A12
0A08:  COMF   01,F
0A0A:  COMF   02,F
0A0C:  INCF   01,F
0A0E:  BTFSC  FD8.2
0A10:  INCF   02,F
0A12:  GOTO   0AC2 (RETURN)
....................  
.................... #list 
....................  
....................  
.................... #fuses NOWDT,MCLR,HS,NOUSBDIV,NOIESO,            //Selecciona el oscilador externo 
.................... #include <stdio.h> 
.................... /////////////////////////////////////////////////////////////////////////// 
.................... ////        (C) Copyright 1996,2003 Custom Computer Services           //// 
.................... //// This source code may only be used by licensed users of the CCS C  //// 
.................... //// compiler.  This source code may only be distributed to other      //// 
.................... //// licensed users of the CCS C compiler.  No other use, reproduction //// 
.................... //// or distribution is permitted without written permission.          //// 
.................... //// Derivative programs created using this software in object code    //// 
.................... //// form are not restricted in any way.                               //// 
.................... /////////////////////////////////////////////////////////////////////////// 
....................  
.................... #ifndef _STDIO 
.................... #define _STDIO 
.................... #include <string.h> 
.................... //////////////////////////////////////////////////////////////////////////// 
.................... ////        (C) Copyright 1996,2008 Custom Computer Services            //// 
.................... //// This source code may only be used by licensed users of the CCS C   //// 
.................... //// compiler.  This source code may only be distributed to other       //// 
.................... //// licensed users of the CCS C compiler.  No other use, reproduction  //// 
.................... //// or distribution is permitted without written permission.           //// 
.................... //// Derivative programs created using this software in object code     //// 
.................... //// form are not restricted in any way.                                //// 
.................... //////////////////////////////////////////////////////////////////////////// 
....................  
.................... #ifndef _STRING 
.................... #define _STRING 
.................... #include <stddef.h> 
.................... /////////////////////////////////////////////////////////////////////////// 
.................... ////        (C) Copyright 1996,2003 Custom Computer Services           //// 
.................... //// This source code may only be used by licensed users of the CCS C  //// 
.................... //// compiler.  This source code may only be distributed to other      //// 
.................... //// licensed users of the CCS C compiler.  No other use, reproduction //// 
.................... //// or distribution is permitted without written permission.          //// 
.................... //// Derivative programs created using this software in object code    //// 
.................... //// form are not restricted in any way.                               //// 
.................... /////////////////////////////////////////////////////////////////////////// 
....................  
.................... #ifndef _STDDEF 
....................  
.................... #define _STDDEF 
....................  
.................... #if sizeof(unsigned int8 *)==1 
.................... #define ptrdiff_t unsigned int8 
.................... #else 
.................... #define ptrdiff_t unsigned int16 
.................... #endif 
....................  
.................... #if defined(__PCB__) || defined(__PCM__) 
.................... #define size_t unsigned int8 
.................... #else 
.................... #define size_t unsigned int16 
.................... #endif 
.................... #define wchar_t char 
.................... #define NULL 0 
....................  
.................... #define offsetof(s,f) (offsetofbit(s,f)/8) 
....................  
.................... #endif 
....................  
.................... #include <ctype.h> 
.................... //////////////////////////////////////////////////////////////////////////// 
.................... ////        (C) Copyright 1996,2003 Custom Computer Services            //// 
.................... //// This source code may only be used by licensed users of the CCS C   //// 
.................... //// compiler.  This source code may only be distributed to other       //// 
.................... //// licensed users of the CCS C compiler.  No other use, reproduction  //// 
.................... //// or distribution is permitted without written permission.           //// 
.................... //// Derivative programs created using this software in object code     //// 
.................... //// form are not restricted in any way.                                //// 
.................... //////////////////////////////////////////////////////////////////////////// 
....................  
.................... #ifndef _CTYPE 
.................... #define _CTYPE 
....................  
.................... #define islower(x)  isamong(x,"abcdefghijklmnopqrstuvwxyz") 
.................... #define isupper(x)  isamong(x,"ABCDEFGHIJKLMNOPQRSTUVWXYZ") 
.................... #define isalnum(x)  isamong(x,"0123456789ABCDEFGHIJKLMNOPQRSTUVWXYZabcdefghijklmnopqrstuvwxyz") 
.................... #define isalpha(x)  isamong(x,"ABCDEFGHIJKLMNOPQRSTUVWXYZabcdefghijklmnopqrstuvwxyz") 
.................... #define isdigit(x)  isamong(x,"0123456789") 
.................... #define isspace(x)  ((x)==' ') 
.................... #define isxdigit(x) isamong(x,"0123456789ABCDEFabcdef") 
.................... #define iscntrl(x)  ((x)<' ') 
.................... #define isprint(x)  ((x)>=' ') 
.................... #define isgraph(x)  ((x)>' ') 
.................... #define ispunct(x)  (((x)>' ')&&!isalnum(x)) 
....................  
.................... #endif 
....................  
....................  
....................  
....................  
....................  
.................... ////////////////////////////////////////////// 
.................... //// Uncomment the following define to    //// 
.................... //// allow some functions to use a        //// 
.................... //// quicker algorithm, but use more ROM  //// 
.................... ////                                      //// 
.................... //// #define FASTER_BUT_MORE_ROM          //// 
.................... ////////////////////////////////////////////// 
....................  
....................  
....................  
.................... /*Copying functions*/ 
.................... /* standard template: 
....................    void *memmove(void *s1, void *s2, size_t n). 
....................    Copies max of n characters safely (not following ending '\0') 
....................    from s2 in s1; if s2 has less than n characters, appends 0 */ 
....................  
.................... unsigned char *memmove(void *s1,void *s2,size_t n) 
.................... { 
....................    unsigned char *sc1; 
....................    unsigned char *sc2; 
....................    sc1=s1; 
....................    sc2=s2; 
....................    if(sc2<sc1 && sc1 <sc2 +n) 
....................       for(sc1+=n,sc2+=n;0<n;--n) 
....................          *--sc1=*--sc2; 
....................    else 
....................       for(;0<n;--n) 
....................          *sc1++=*sc2++; 
....................   return s1; 
....................   } 
....................  
.................... /* Standard template: char *strcpy(char *s1, const char *s2) 
....................    copies the string s2 including the null character to s1. 
....................    This is a compiler built in to handle the different address 
....................    spaces */ 
....................  
.................... #define strcopy strcpy 
....................  
.................... /* standard template: 
....................    char *strncpy(char *s1, const char *s2, size_t n). 
....................    Copies max of n characters (not following ending '\0') 
....................    from s2 in s1; if s2 has less than n characters, appends 0 */ 
....................  
.................... unsigned char *strncpy(unsigned char *s1, unsigned char *s2, size_t n) 
.................... { 
....................   unsigned char *s; 
....................  
....................   for (s = s1; n > 0 && *s2 != '\0'; n--) 
....................      *s++ = *s2++; 
....................   for (; n > 0; n--) 
....................      *s++ = '\0'; 
....................  
....................   return(s1); 
.................... } 
.................... /***********************************************************/ 
....................  
.................... /*concatenation functions*/ 
.................... /* standard template: char *strcat(char *s1, const char *s2) 
.................... appends s2 to s1*/ 
....................  
.................... unsigned char *strcat(unsigned char *s1, unsigned char *s2) 
.................... { 
....................    unsigned char *s; 
....................  
....................    for (s = s1; *s != '\0'; ++s); 
....................    while(*s2 != '\0') 
....................    { 
....................       *s = *s2; 
....................       ++s; 
....................       ++s2; 
....................    } 
....................  
....................    *s = '\0'; 
....................    return(s1); 
.................... } 
.................... /* standard template: char *strncat(char *s1, char *s2,size_t n) 
.................... appends not more than n characters from s2 to s1*/ 
....................  
.................... unsigned char *strncat(unsigned char *s1, unsigned char *s2, size_t n) 
.................... { 
....................    unsigned char *s; 
....................  
....................    for (s = s1; *s != '\0'; ++s); 
....................    while(*s2 != '\0' && 0<n) 
....................    { 
....................       *s = *s2; 
....................       ++s; 
....................       ++s2; 
*
1516:  CLRF   24
1518:  MOVF   FC1,W
151A:  ANDLW  C0
151C:  IORLW  0F
151E:  MOVWF  FC1
....................       --n; 
....................    } 
....................  
....................    *s = '\0'; 
....................    return(s1); 
.................... } 
....................  
.................... /***********************************************************/ 
....................  
....................  
.................... /*comparison functions*/ 
.................... /* standard template: signed int memcmp(void *s1, void *s2). 
....................    Compares s1 & s2; returns -1 if s1<s2, 0 if s1=s2, 1 if s1>s2 */ 
....................  
.................... signed int8 memcmp(void * s1,void *s2,size_t n) 
.................... { 
.................... unsigned char *su1, *su2; 
.................... for(su1=s1, su2=s2; 0<n; ++su1, ++su2, --n) 
.................... { 
....................    if(*su1!=*su2) 
....................       return ((*su1<*su2)?-1:1); 
.................... } 
.................... return 0; 
.................... } 
....................  
.................... /* standard template: int strcmp(const char *s1, const char *s2). 
....................    Compares s1 & s2; returns -1 if s1<s2, 0 if s1=s2, 1 if s1>s2 */ 
....................  
.................... signed int8 strcmp(unsigned char *s1, unsigned char *s2) 
.................... { 
....................    for (; *s1 == *s2; s1++, s2++) 
....................       if (*s1 == '\0') 
....................          return(0); 
....................    return((*s1 < *s2) ? -1: 1); 
.................... } 
.................... /* standard template: int strcoll(const char *s1, const char *s2). 
....................    Compares s1 & s2; returns -1 if s1<s2, 0 if s1=s2, 1 if s1>s2 */ 
....................  
.................... signed int8 strcoll(unsigned char *s1, unsigned char *s2) 
.................... { 
....................    for (; *s1 == *s2; s1++, s2++) 
....................       if (*s1 == '\0') 
....................          return(0); 
....................    return((*s1 < *s2) ? -1: 1); 
.................... } 
....................  
.................... /* standard template: 
....................    int strncmp(const char *s1, const char *s2, size_t n). 
....................    Compares max of n characters (not following 0) from s1 to s2; 
....................    returns same as strcmp */ 
....................  
.................... signed int8 strncmp(unsigned char *s1, unsigned char *s2, size_t n) 
.................... { 
....................    for (; n > 0; s1++, s2++, n--) 
....................       if (*s1 != *s2) 
....................          return((*s1 <*s2) ? -1: 1); 
....................       else if (*s1 == '\0') 
....................          return(0); 
....................    return(0); 
.................... } 
.................... /* standard template: 
....................    int strxfrm(const char *s1, const char *s2, size_t n). 
....................    transforms maximum of n characters from s2 and places them into s1, returns number of chars written ot s1. 
....................    if s1 is NULL and n is 0, then it returns the length of s2.*/ 
.................... size_t strxfrm(unsigned char *s1, unsigned char *s2, size_t n) 
.................... { 
....................    unsigned char c; 
....................    unsigned int8 n1; 
....................     
....................    if (!s1 && !n) 
....................       n = -1; //find length 
....................  
....................    n1 = 0; 
....................     
....................    for (; n1 < n; n1++) 
....................    { 
....................       c = *s2++; 
....................       if (!c) 
....................          break; 
....................       if (s1) 
....................          *s1++ = c; 
....................    } 
....................  
....................   return(n1); 
.................... } 
....................  
....................  
....................  
....................  
....................  
.................... /***********************************************************/ 
.................... /*Search functions*/ 
.................... /* standard template: void *memchr(const char *s, int c). 
....................    Finds first occurrence of c in n characters of s */ 
....................  
.................... unsigned char *memchr(void *s,unsigned int8 c,size_t n) 
.................... { 
....................    unsigned char uc; 
....................    unsigned char *su; 
....................    uc=c; 
....................    for(su=s;0<n;++su,--n) 
....................       if(*su==uc) 
....................       return su; 
....................    return NULL; 
.................... } 
....................  
.................... /* standard template: char *strchr(const char *s, int c). 
....................    Finds first occurrence of c in s */ 
....................  
.................... unsigned char *strchr(unsigned char *s, unsigned int8 c) 
.................... { 
....................    for (; *s != c; s++) 
....................       if (*s == '\0') 
....................          return(0); 
....................    return(s); 
.................... } 
.................... /* standard template: 
....................    size_t strcspn(const char *s1, const char *s2). 
....................    Computes length of max initial segment of s1 that 
....................    consists entirely of characters NOT from s2*/ 
....................  
.................... unsigned int8  strcspn(unsigned char *s1, unsigned char *s2) 
.................... { 
....................    unsigned char *sc1, *sc2; 
....................  
....................    for (sc1 = s1; *sc1 != 0; sc1++) 
....................       for (sc2 = s2; *sc2 != 0; sc2++) 
....................          if (*sc1 == *sc2) 
....................             return(sc1 - s1); 
....................    return(sc1 - s1); 
.................... } 
.................... /* standard template: 
....................    char *strpbrk(const char *s1, const char *s2). 
....................    Locates first occurence of any character from s2 in s1; 
....................    returns s1 if s2 is empty string */ 
....................  
.................... unsigned char *strpbrk(unsigned char *s1, unsigned char *s2) 
.................... { 
....................    unsigned char *sc1, *sc2; 
....................  
....................    for (sc1 = s1; *sc1 != 0; sc1++) 
....................       for (sc2 = s2; *sc2 != 0; sc2++) 
....................          if (*sc1 == *sc2) 
....................             return(sc1); 
....................    return(0); 
.................... } 
....................  
....................  
.................... /* standard template: char *strrchr(const char *s, int c). 
....................    Finds last occurrence of c in s */ 
....................  
.................... unsigned char *strrchr(unsigned char *s, unsigned int8 c) 
.................... { 
....................    unsigned char *p; 
....................  
....................    for (p = 0; ; s++) 
....................    { 
....................       if (*s == c) 
....................          p = s; 
....................       if (*s == '\0') 
....................          return(p); 
....................    } 
.................... } 
.................... /* computes length of max initial segment of s1 consisting 
....................    entirely of characters from s2 */ 
....................  
.................... unsigned int8  strspn(unsigned char *s1, unsigned char *s2) 
.................... { 
....................    unsigned char *sc1, *sc2; 
....................  
....................    for (sc1 = s1; *sc1 != 0; sc1++) 
....................       for (sc2 = s2; ; sc2++) 
....................     if (*sc2 == '\0') 
....................        return(sc1 - s1); 
....................          else if (*sc1 == *sc2) 
....................             break; 
....................    return(sc1 - s1); 
.................... } 
.................... /* standard template: 
....................    char *strstr(const char *s1, const char *s2); 
....................    Locates first occurence of character sequence s2 in s1; 
....................    returns 0 if s2 is empty string 
....................  
....................    Uncomment #define FASTER_BUT_MORE_ROM at the top of the 
....................    file to use the faster algorithm */ 
.................... unsigned char *strstr(unsigned char *s1, unsigned char *s2) 
.................... { 
....................    unsigned char *s, *t; 
....................  
....................    #ifdef FASTER_BUT_MORE_ROM 
....................    if (*s2 == '\0') 
....................          return(s1); 
....................    #endif 
....................  
....................    while (*s1) 
....................    { 
....................       for(s = s1, t = s2; *t && (*s == *t); ++s, ++t); 
....................  
....................       if (*t == '\0') 
....................          return s1; 
....................       ++s1; 
....................       #ifdef FASTER_BUT_MORE_ROM 
....................          while(*s1 != '\0' && *s1 != *s2) 
....................             ++s1; 
....................       #endif 
....................    } 
....................    return 0; 
.................... } 
....................  
.................... /* standard template: size_t strlen(const char *s). 
....................    Computes length of s1 (preceding terminating 0) */ 
....................  
.................... size_t strlen(unsigned char *s) 
.................... { 
....................    unsigned char *sc; 
....................  
....................    for (sc = s; *sc != 0; sc++); 
....................    return(sc - s); 
.................... } 
....................  
.................... /* standard template: char *strtok(char *s1, const char *s2). 
....................  
....................    Finds next token in s1 delimited by a character from separator 
....................    string s2 (which can be different from call to call).  First call 
....................    starts at beginning of s1 searching for first character NOT 
....................    contained in s2; returns 0 if none is found. 
....................    If one is found, it is the start of first token (return value). 
....................    Function then searches from there for a character contained in s2. 
....................    If none is found, current token extends to end of s1, and subsequent 
....................    searches for a token will return 0.  If one is found, it is 
....................    overwritten by '\0', which terminates current token.  Function saves 
....................    pointer to following character from which next search will start. 
....................    Each subsequent call, with 0 as first argument, starts searching 
....................    from saved pointer */ 
....................  
.................... unsigned char *strtok(unsigned char *s1, unsigned char *s2) 
.................... { 
*
1508:  CLRF   19
150A:  CLRF   1A
....................    unsigned char *beg, *end; 
....................    static char *save; 
....................  
....................    beg = (s1)? s1: save; 
....................    beg += strspn(beg, s2); 
....................    if (*beg == '\0') 
....................       return(0); 
....................        
....................    end = strpbrk(beg, s2); 
....................    if (end != '\0') 
....................    { 
....................       *end = '\0'; 
....................       end++; 
....................       save = end; 
....................    } 
....................    else 
....................       save = beg + strlen(beg); 
....................     
....................    return(beg); 
.................... } 
....................  
.................... /*****************************************************************/ 
.................... /*Miscellaneous functions*/ 
.................... /* standard template 
.................... maps error number in errnum to an error message string 
.................... Returns: Pointer to string 
.................... */ 
.................... #ifdef _ERRNO 
.................... unsigned char * strerror(unsigned int8 errnum) 
.................... { 
.................... static unsigned char s[13]; 
.................... switch( errnum) 
.................... { 
.................... case 0: 
....................    strcpy(s,"no errors"); 
....................    return s; 
.................... case EDOM : 
....................    strcpy(s,"domain error"); 
....................    return s; 
.................... case ERANGE: 
....................    strcpy(s,"range error"); 
....................    return s; 
.................... } 
.................... } 
.................... #ENDIF 
....................  
.................... /* standard template: size_t stricmp(const char *s1, const char *s2). 
....................    Compares s1 to s2 ignoring case (upper vs. lower) */ 
....................  
.................... signed int8 stricmp(unsigned char *s1, unsigned char *s2) 
.................... { 
....................  for(; *s1==*s2||(isalpha(*s1)&&isalpha(*s2)&&(*s1==*s2+32||*s2==*s1+32)); 
....................     s1++, s2++) 
....................     if (*s1 == '\0') 
....................        return(0); 
....................  return((*s1 < *s2) ? -1: 1); 
.................... } 
....................  
....................  
.................... /* standard template: char *strlwr(char *s). 
....................    Replaces uppercase letters by lowercase; 
....................    returns pointer to new string s */ 
....................  
.................... unsigned char *strlwr(unsigned char *s) 
.................... { 
....................    unsigned char *p; 
....................  
....................    for (p = s; *p != '\0'; p++) 
....................       if (*p >= 'A' && *p <='Z') 
....................          *p += 'a' - 'A'; 
....................    return(s); 
.................... } 
....................  
.................... /* standard template: char *strupr(char *s). 
....................    Replaces lowercase letters by upercase; 
....................    returns pointer to new string s */ 
....................  
.................... unsigned char *strupr(unsigned char *s) 
.................... { 
....................    unsigned char *p; 
....................  
....................    for (p = s; *p != '\0'; p++) 
....................       if (*p >= 'a' && *p <='z') 
....................          *p -= 'a' - 'A'; 
....................    return(s); 
.................... } 
....................  
....................  
.................... /************************************************************/ 
....................  
....................  
.................... #endif 
....................  
.................... #ifndef getc 
.................... #define getc getch 
.................... #define getchar getch 
.................... #define puts(s) {printf(s); putchar(13); putchar(10);} 
.................... #define putc putchar 
.................... #endif 
.................... /* maps error number to an error message. Writes a sequence of characters to 
.................... stderr stream thus: if s is not null then string pointed to by s follwed by 
.................... a colon (:) and a space and the appropriate error message returned by strerror 
.................... function with argument errno 
....................  
.................... Returns: no value 
.................... */ 
....................  
.................... #ifdef _ERRNO 
.................... void perror(char *s) 
.................... { 
....................   if(s) 
....................   fprintf(STDERR,"%s: ",s); 
....................   fprintf(STDERR,"%s\r\n",strerror(errno)); 
.................... } 
.................... #endif 
.................... #endif 
....................  
.................... #include <stdlib.h> 
.................... /////////////////////////////////////////////////////////////////////////// 
.................... ////        (C) Copyright 1996,2007 Custom Computer Services           //// 
.................... //// This source code may only be used by licensed users of the CCS C  //// 
.................... //// compiler.  This source code may only be distributed to other      //// 
.................... //// licensed users of the CCS C compiler.  No other use, reproduction //// 
.................... //// or distribution is permitted without written permission.          //// 
.................... //// Derivative programs created using this software in object code    //// 
.................... //// form are not restricted in any way.                               //// 
.................... /////////////////////////////////////////////////////////////////////////// 
....................  
.................... #ifndef _STDLIB 
.................... #define _STDLIB 
....................  
.................... //--------------------------------------------------------------------------- 
.................... // Definitions and types 
.................... //--------------------------------------------------------------------------- 
....................  
.................... #ifndef RAND_MAX 
.................... #define RAND_MAX  32767    // The value of which is the maximum value 
....................                            // ... returned by the rand function 
.................... #endif 
....................  
....................  
.................... #IF (sizeof(int16*)>1) 
.................... #DEFINE LONG_POINTERS 1 
.................... #ELSE  
.................... #DEFINE LONG_POINTERS 0 
.................... #ENDIF 
....................  
.................... typedef struct { 
....................    signed int quot; 
....................    signed int rem; 
.................... } div_t; 
....................  
.................... typedef struct { 
....................    signed long quot; 
....................    signed long rem; 
.................... } ldiv_t; 
....................  
.................... #include <stddef.h> 
.................... /////////////////////////////////////////////////////////////////////////// 
.................... ////        (C) Copyright 1996,2003 Custom Computer Services           //// 
.................... //// This source code may only be used by licensed users of the CCS C  //// 
.................... //// compiler.  This source code may only be distributed to other      //// 
.................... //// licensed users of the CCS C compiler.  No other use, reproduction //// 
.................... //// or distribution is permitted without written permission.          //// 
.................... //// Derivative programs created using this software in object code    //// 
.................... //// form are not restricted in any way.                               //// 
.................... /////////////////////////////////////////////////////////////////////////// 
....................  
.................... #ifndef _STDDEF 
....................  
.................... #define _STDDEF 
....................  
.................... #if sizeof(unsigned int8 *)==1 
.................... #define ptrdiff_t unsigned int8 
.................... #else 
.................... #define ptrdiff_t unsigned int16 
.................... #endif 
....................  
.................... #if defined(__PCB__) || defined(__PCM__) 
.................... #define size_t unsigned int8 
.................... #else 
.................... #define size_t unsigned int16 
.................... #endif 
.................... #define wchar_t char 
.................... #define NULL 0 
....................  
.................... #define offsetof(s,f) (offsetofbit(s,f)/8) 
....................  
.................... #endif 
....................  
....................  
.................... //--------------------------------------------------------------------------- 
.................... // String conversion functions 
.................... //--------------------------------------------------------------------------- 
....................  
.................... /* Standard template: signed int  atoi(char * s) 
....................  * converts the initial portion of the string s to a signed int 
....................  * returns the converted value if any, 0 otherwise 
....................  */ 
.................... signed int atoi(char *s); 
....................  
.................... /* Syntax: signed int32  atoi32(char * s) 
....................    converts the initial portion of the string s to a signed int32 
....................    returns the converted value if any, 0 otherwise*/ 
.................... #if (sizeof(long)==4) 
....................  #define atoi32(s) atol(s) 
.................... #else  
....................  signed int32 atoi32(char *s); 
.................... #endif 
....................  
.................... #if defined(__PCD__) 
.................... // The following functions only work on the 24 bit compiler 
.................... // for the 30F, 33F, 24F and 24H parts 
.................... /* Syntax: signed int48  atoi48(char * s) 
....................    converts the initial portion of the string s to a signed int48 
....................    returns the converted value if any, 0 otherwise*/ 
....................     
.................... signed int48 atoi48(char *s); 
....................  
.................... /* Syntax: signed int64  atoi64(char * s) 
....................    converts the initial portion of the string s to a signed int64 
....................    returns the converted value if any, 0 otherwise*/ 
.................... signed int64 atoi64(char *s); 
.................... #endif 
....................  
.................... /* Syntax: char *  itoa(signed int32 num, int8 base, char * s) 
....................    converts the signed int32 to a string and 
....................    returns the converted value if any, 0 otherwise*/ 
.................... char * itoa(signed int32 num, unsigned int base, char * s); 
....................  
.................... /* Standard template: signed int16  atol(char * s) 
....................  * converts the initial portion of the string s to a signed int16 
....................  * returns the converted value if any, 0 otherwise 
....................  */ 
.................... signed long atol(char *s); 
....................  
.................... /* Standard template: int16 strtoul(char * s,char *endptr,signed int base) 
....................  * converts the initial portion of the string s, represented as an 
....................  * integral value of radix base  to a signed long. 
....................  * Returns the converted value if any, 0 otherwise 
....................  * the final string is returned in the endptr, if endptr is not null 
....................  */ 
.................... signed long strtol(char *s,char *endptr, signed int base); 
....................  
.................... /* Standard template: int16 strtoul(char * s,char *endptr,signed int base) 
....................  * converts the initial portion of the string s, represented as an 
....................  * integral value of radix base to a unsigned long. 
....................  * returns the converted value if any, 0 otherwise 
....................  * the final string is returned in the endptr, if endptr is not null 
....................  */ 
.................... unsigned long strtoul(char *s,char *endptr, signed int base); 
....................  
.................... /* Standart template: float strtof(char * s,char *endptr) 
....................                       float48 strtof48(char *s,char *endptr); 
....................                       float64 strtod(char *s,char *endptr); 
....................  * converts the initial portion of the string s to a float32, float48 or float64, 
....................  * returns the converted value if any, 0 otherwise 
....................  * the final string is returned in the endptr, if endptr is not null                    
.................... */ 
.................... float strtof(char *s,char *endptr); 
.................... #if defined(__PCD__) 
.................... float48 strtof48(char *s,char *endptr); 
.................... float64 strtod(char *s,char *endptr); 
.................... #else 
.................... //provided for compatibility 
.................... #define strtof48(s, e) strtof(s, e) 
.................... #define strtod(s, e) strtof(s, e) 
.................... #endif 
....................  
.................... /* Standard template: float32 atof(char * s) 
....................  * converts the initial portion of the string s to a float. 
....................  * returns the converted value if any, 0 otherwise 
....................  */ 
.................... #define atof(s)   strtof(s, 0) 
....................  
.................... #if defined(__PCD__) 
.................... // The following functions only work on the 24 bit compiler 
.................... // for the 30F, 33F, 24F and 24H parts 
....................  
.................... /* Standard template: float48 atof48(char * s) 
....................  * converts the initial portion of the string s to a float. 
....................  * returns the converted value if any, 0 otherwise 
....................  */ 
.................... #define atof48(s) strtof48(s, 0) 
....................  
.................... /* Standard template: float64 atof64(char * s) 
....................  * converts the initial portion of the string s to a float. 
....................  * returns the converted value if any, 0 otherwise 
....................  */ 
.................... #define atof64(s) strtod(s, 0) 
.................... #endif 
....................  
.................... /* Standard template: float32 atoe(char * s) 
....................  * converts the initial portion of the string s to a float. 
....................  * returns the converted value if any, 0 otherwise 
....................  * also handles E format numbers 
....................  */ 
.................... #if !defined(__PCD__) 
.................... float atoe(char * s); 
.................... #endif 
....................  
.................... #if defined(__PCD__) 
.................... float32 atoe(char * s); 
.................... #endif 
....................  
.................... //--------------------------------------------------------------------------- 
.................... // Pseudo-random sequence generation functions 
.................... //--------------------------------------------------------------------------- 
....................  
.................... /* The rand function computes a sequence of pseudo-random integers in 
....................  * the range 0 to RAND_MAX 
....................  * 
....................  * Parameters: 
....................  *       (none) 
....................  * 
....................  * Returns: 
....................  *       The pseudo-random integer 
....................  */ 
.................... unsigned int16 rand(void); 
....................  
.................... /* The srand function uses the argument as a seed for a new sequence of 
....................  * pseudo-random numbers to be returned by subsequent calls to rand. 
....................  * 
....................  * Parameters: 
....................  *       [in] seed: The seed value to start from. You might need to pass 
....................  * 
....................  * Returns: 
....................  *       (none) 
....................  * 
....................  * Remarks 
....................  *          The srand function sets the starting point for generating 
....................  *       a series of pseudorandom integers. To reinitialize the 
....................  *       generator, use 1 as the seed argument. Any other value for 
....................  *       seed sets the generator to a random starting point. rand 
....................  *       retrieves the pseudorandom numbers that are generated. 
....................  *       Calling rand before any call to srand generates the same 
....................  *       sequence as calling srand with seed passed as 1. 
....................  *          Usually, you need to pass a time here from outer source 
....................  *       so that the numbers will be different every time you run. 
....................  */ 
.................... void srand(unsigned int32 seed); 
....................  
.................... //--------------------------------------------------------------------------- 
.................... // Memory management functions 
.................... //--------------------------------------------------------------------------- 
....................  
.................... // Comming soon 
....................  
.................... //--------------------------------------------------------------------------- 
.................... // Communication with the environment 
.................... //--------------------------------------------------------------------------- 
....................  
.................... /* The function returns 0 always 
....................  */ 
.................... signed int8 system(char *string); 
....................  
.................... //--------------------------------------------------------------------------- 
.................... // Searching and sorting utilities 
.................... //--------------------------------------------------------------------------- 
....................  
.................... /* Performs a binary search of a sorted array.. 
....................  * 
....................  * Parameters: 
....................  *       [in] key: Object to search for 
....................  *       [in] base: Pointer to base of search data 
....................  *       [in] num: Number of elements 
....................  *       [in] width: Width of elements 
....................  *       [in] compare: Function that compares two elements 
....................  * 
....................  * Returns: 
....................  *       bsearch returns a pointer to an occurrence of key in the array pointed 
....................  *       to by base. If key is not found, the function returns NULL. If the 
....................  *       array is not in order or contains duplicate records with identical keys, 
....................  *       the result is unpredictable. 
....................  */ 
.................... //void *bsearch(const void *key, const void *base, size_t num, size_t width, 
.................... //              int (*compare)(const void *, const void *)); 
....................  
.................... /* Performs the shell-metzner sort (not the quick sort algorithm). The contents 
....................  * of the array are sorted into ascending order according to a comparison 
....................  * function pointed to by compar. 
....................  * 
....................  * Parameters: 
....................  *       [in] base: Pointer to base of search data 
....................  *       [in] num: Number of elements 
....................  *       [in] width: Width of elements 
....................  *       [in] compare: Function that compares two elements 
....................  * 
....................  * Returns: 
....................  *       (none) 
....................  */ 
.................... //void *qsort(const void *base, size_t num, size_t width, 
.................... //              int (*compare)(const void *, const void *)); 
....................  
.................... //--------------------------------------------------------------------------- 
.................... // Integer arithmetic functions 
.................... //--------------------------------------------------------------------------- 
....................  
.................... #define labs abs 
....................  
.................... div_t div(signed int numer, signed int denom); 
.................... ldiv_t ldiv(signed long numer, signed long denom); 
....................  
.................... //--------------------------------------------------------------------------- 
.................... // Multibyte character functions 
.................... //--------------------------------------------------------------------------- 
....................  
.................... // Not supported 
....................  
.................... //--------------------------------------------------------------------------- 
.................... // Multibyte string functions 
.................... //--------------------------------------------------------------------------- 
....................  
.................... // Not supported 
....................  
....................  
.................... //--------------------------------------------------------------------------- 
.................... // Internal implementation 
.................... //--------------------------------------------------------------------------- 
....................  
.................... #include <stddef.h> 
.................... /////////////////////////////////////////////////////////////////////////// 
.................... ////        (C) Copyright 1996,2003 Custom Computer Services           //// 
.................... //// This source code may only be used by licensed users of the CCS C  //// 
.................... //// compiler.  This source code may only be distributed to other      //// 
.................... //// licensed users of the CCS C compiler.  No other use, reproduction //// 
.................... //// or distribution is permitted without written permission.          //// 
.................... //// Derivative programs created using this software in object code    //// 
.................... //// form are not restricted in any way.                               //// 
.................... /////////////////////////////////////////////////////////////////////////// 
....................  
.................... #ifndef _STDDEF 
....................  
.................... #define _STDDEF 
....................  
.................... #if sizeof(unsigned int8 *)==1 
.................... #define ptrdiff_t unsigned int8 
.................... #else 
.................... #define ptrdiff_t unsigned int16 
.................... #endif 
....................  
.................... #if defined(__PCB__) || defined(__PCM__) 
.................... #define size_t unsigned int8 
.................... #else 
.................... #define size_t unsigned int16 
.................... #endif 
.................... #define wchar_t char 
.................... #define NULL 0 
....................  
.................... #define offsetof(s,f) (offsetofbit(s,f)/8) 
....................  
.................... #endif 
....................  
.................... #include <string.h> 
.................... //////////////////////////////////////////////////////////////////////////// 
.................... ////        (C) Copyright 1996,2008 Custom Computer Services            //// 
.................... //// This source code may only be used by licensed users of the CCS C   //// 
.................... //// compiler.  This source code may only be distributed to other       //// 
.................... //// licensed users of the CCS C compiler.  No other use, reproduction  //// 
.................... //// or distribution is permitted without written permission.           //// 
.................... //// Derivative programs created using this software in object code     //// 
.................... //// form are not restricted in any way.                                //// 
.................... //////////////////////////////////////////////////////////////////////////// 
....................  
.................... #ifndef _STRING 
.................... #define _STRING 
.................... #include <stddef.h> 
.................... #include <ctype.h> 
....................  
....................  
....................  
.................... ////////////////////////////////////////////// 
.................... //// Uncomment the following define to    //// 
.................... //// allow some functions to use a        //// 
.................... //// quicker algorithm, but use more ROM  //// 
.................... ////                                      //// 
.................... //// #define FASTER_BUT_MORE_ROM          //// 
.................... ////////////////////////////////////////////// 
....................  
....................  
....................  
.................... /*Copying functions*/ 
.................... /* standard template: 
....................    void *memmove(void *s1, void *s2, size_t n). 
....................    Copies max of n characters safely (not following ending '\0') 
....................    from s2 in s1; if s2 has less than n characters, appends 0 */ 
....................  
.................... unsigned char *memmove(void *s1,void *s2,size_t n) 
.................... { 
....................    unsigned char *sc1; 
....................    unsigned char *sc2; 
....................    sc1=s1; 
....................    sc2=s2; 
....................    if(sc2<sc1 && sc1 <sc2 +n) 
....................       for(sc1+=n,sc2+=n;0<n;--n) 
....................          *--sc1=*--sc2; 
....................    else 
....................       for(;0<n;--n) 
....................          *sc1++=*sc2++; 
....................   return s1; 
....................   } 
....................  
.................... /* Standard template: char *strcpy(char *s1, const char *s2) 
....................    copies the string s2 including the null character to s1. 
....................    This is a compiler built in to handle the different address 
....................    spaces */ 
....................  
.................... #define strcopy strcpy 
....................  
.................... /* standard template: 
....................    char *strncpy(char *s1, const char *s2, size_t n). 
....................    Copies max of n characters (not following ending '\0') 
....................    from s2 in s1; if s2 has less than n characters, appends 0 */ 
....................  
.................... unsigned char *strncpy(unsigned char *s1, unsigned char *s2, size_t n) 
.................... { 
....................   unsigned char *s; 
....................  
....................   for (s = s1; n > 0 && *s2 != '\0'; n--) 
....................      *s++ = *s2++; 
....................   for (; n > 0; n--) 
....................      *s++ = '\0'; 
....................  
....................   return(s1); 
.................... } 
.................... /***********************************************************/ 
....................  
.................... /*concatenation functions*/ 
.................... /* standard template: char *strcat(char *s1, const char *s2) 
.................... appends s2 to s1*/ 
....................  
.................... unsigned char *strcat(unsigned char *s1, unsigned char *s2) 
.................... { 
....................    unsigned char *s; 
....................  
....................    for (s = s1; *s != '\0'; ++s); 
....................    while(*s2 != '\0') 
....................    { 
....................       *s = *s2; 
....................       ++s; 
....................       ++s2; 
....................    } 
....................  
....................    *s = '\0'; 
....................    return(s1); 
.................... } 
.................... /* standard template: char *strncat(char *s1, char *s2,size_t n) 
.................... appends not more than n characters from s2 to s1*/ 
....................  
.................... unsigned char *strncat(unsigned char *s1, unsigned char *s2, size_t n) 
.................... { 
....................    unsigned char *s; 
....................  
....................    for (s = s1; *s != '\0'; ++s); 
....................    while(*s2 != '\0' && 0<n) 
....................    { 
....................       *s = *s2; 
....................       ++s; 
....................       ++s2; 
....................       --n; 
....................    } 
....................  
....................    *s = '\0'; 
....................    return(s1); 
.................... } 
....................  
.................... /***********************************************************/ 
....................  
....................  
.................... /*comparison functions*/ 
.................... /* standard template: signed int memcmp(void *s1, void *s2). 
....................    Compares s1 & s2; returns -1 if s1<s2, 0 if s1=s2, 1 if s1>s2 */ 
....................  
.................... signed int8 memcmp(void * s1,void *s2,size_t n) 
.................... { 
.................... unsigned char *su1, *su2; 
.................... for(su1=s1, su2=s2; 0<n; ++su1, ++su2, --n) 
.................... { 
....................    if(*su1!=*su2) 
....................       return ((*su1<*su2)?-1:1); 
.................... } 
.................... return 0; 
.................... } 
....................  
.................... /* standard template: int strcmp(const char *s1, const char *s2). 
....................    Compares s1 & s2; returns -1 if s1<s2, 0 if s1=s2, 1 if s1>s2 */ 
....................  
.................... signed int8 strcmp(unsigned char *s1, unsigned char *s2) 
.................... { 
....................    for (; *s1 == *s2; s1++, s2++) 
....................       if (*s1 == '\0') 
....................          return(0); 
....................    return((*s1 < *s2) ? -1: 1); 
.................... } 
.................... /* standard template: int strcoll(const char *s1, const char *s2). 
....................    Compares s1 & s2; returns -1 if s1<s2, 0 if s1=s2, 1 if s1>s2 */ 
....................  
.................... signed int8 strcoll(unsigned char *s1, unsigned char *s2) 
.................... { 
....................    for (; *s1 == *s2; s1++, s2++) 
....................       if (*s1 == '\0') 
....................          return(0); 
....................    return((*s1 < *s2) ? -1: 1); 
.................... } 
....................  
.................... /* standard template: 
....................    int strncmp(const char *s1, const char *s2, size_t n). 
....................    Compares max of n characters (not following 0) from s1 to s2; 
....................    returns same as strcmp */ 
....................  
.................... signed int8 strncmp(unsigned char *s1, unsigned char *s2, size_t n) 
.................... { 
....................    for (; n > 0; s1++, s2++, n--) 
....................       if (*s1 != *s2) 
....................          return((*s1 <*s2) ? -1: 1); 
....................       else if (*s1 == '\0') 
....................          return(0); 
....................    return(0); 
.................... } 
.................... /* standard template: 
....................    int strxfrm(const char *s1, const char *s2, size_t n). 
....................    transforms maximum of n characters from s2 and places them into s1, returns number of chars written ot s1. 
....................    if s1 is NULL and n is 0, then it returns the length of s2.*/ 
.................... size_t strxfrm(unsigned char *s1, unsigned char *s2, size_t n) 
.................... { 
....................    unsigned char c; 
....................    unsigned int8 n1; 
....................     
....................    if (!s1 && !n) 
....................       n = -1; //find length 
....................  
....................    n1 = 0; 
....................     
....................    for (; n1 < n; n1++) 
....................    { 
....................       c = *s2++; 
....................       if (!c) 
....................          break; 
....................       if (s1) 
....................          *s1++ = c; 
....................    } 
....................  
....................   return(n1); 
.................... } 
....................  
....................  
....................  
....................  
....................  
.................... /***********************************************************/ 
.................... /*Search functions*/ 
.................... /* standard template: void *memchr(const char *s, int c). 
....................    Finds first occurrence of c in n characters of s */ 
....................  
.................... unsigned char *memchr(void *s,unsigned int8 c,size_t n) 
.................... { 
....................    unsigned char uc; 
....................    unsigned char *su; 
....................    uc=c; 
....................    for(su=s;0<n;++su,--n) 
....................       if(*su==uc) 
....................       return su; 
....................    return NULL; 
.................... } 
....................  
.................... /* standard template: char *strchr(const char *s, int c). 
....................    Finds first occurrence of c in s */ 
....................  
.................... unsigned char *strchr(unsigned char *s, unsigned int8 c) 
.................... { 
....................    for (; *s != c; s++) 
....................       if (*s == '\0') 
....................          return(0); 
....................    return(s); 
.................... } 
.................... /* standard template: 
....................    size_t strcspn(const char *s1, const char *s2). 
....................    Computes length of max initial segment of s1 that 
....................    consists entirely of characters NOT from s2*/ 
....................  
.................... unsigned int8  strcspn(unsigned char *s1, unsigned char *s2) 
.................... { 
....................    unsigned char *sc1, *sc2; 
....................  
....................    for (sc1 = s1; *sc1 != 0; sc1++) 
....................       for (sc2 = s2; *sc2 != 0; sc2++) 
....................          if (*sc1 == *sc2) 
....................             return(sc1 - s1); 
....................    return(sc1 - s1); 
.................... } 
.................... /* standard template: 
....................    char *strpbrk(const char *s1, const char *s2). 
....................    Locates first occurence of any character from s2 in s1; 
....................    returns s1 if s2 is empty string */ 
....................  
.................... unsigned char *strpbrk(unsigned char *s1, unsigned char *s2) 
.................... { 
....................    unsigned char *sc1, *sc2; 
....................  
....................    for (sc1 = s1; *sc1 != 0; sc1++) 
....................       for (sc2 = s2; *sc2 != 0; sc2++) 
....................          if (*sc1 == *sc2) 
....................             return(sc1); 
....................    return(0); 
.................... } 
....................  
....................  
.................... /* standard template: char *strrchr(const char *s, int c). 
....................    Finds last occurrence of c in s */ 
....................  
.................... unsigned char *strrchr(unsigned char *s, unsigned int8 c) 
.................... { 
....................    unsigned char *p; 
....................  
....................    for (p = 0; ; s++) 
....................    { 
....................       if (*s == c) 
....................          p = s; 
....................       if (*s == '\0') 
....................          return(p); 
....................    } 
.................... } 
.................... /* computes length of max initial segment of s1 consisting 
....................    entirely of characters from s2 */ 
....................  
.................... unsigned int8  strspn(unsigned char *s1, unsigned char *s2) 
.................... { 
....................    unsigned char *sc1, *sc2; 
....................  
....................    for (sc1 = s1; *sc1 != 0; sc1++) 
....................       for (sc2 = s2; ; sc2++) 
....................     if (*sc2 == '\0') 
....................        return(sc1 - s1); 
....................          else if (*sc1 == *sc2) 
....................             break; 
....................    return(sc1 - s1); 
.................... } 
.................... /* standard template: 
....................    char *strstr(const char *s1, const char *s2); 
....................    Locates first occurence of character sequence s2 in s1; 
....................    returns 0 if s2 is empty string 
....................  
....................    Uncomment #define FASTER_BUT_MORE_ROM at the top of the 
....................    file to use the faster algorithm */ 
.................... unsigned char *strstr(unsigned char *s1, unsigned char *s2) 
.................... { 
....................    unsigned char *s, *t; 
....................  
....................    #ifdef FASTER_BUT_MORE_ROM 
....................    if (*s2 == '\0') 
....................          return(s1); 
....................    #endif 
....................  
....................    while (*s1) 
....................    { 
....................       for(s = s1, t = s2; *t && (*s == *t); ++s, ++t); 
....................  
....................       if (*t == '\0') 
....................          return s1; 
....................       ++s1; 
....................       #ifdef FASTER_BUT_MORE_ROM 
....................          while(*s1 != '\0' && *s1 != *s2) 
....................             ++s1; 
....................       #endif 
....................    } 
....................    return 0; 
.................... } 
....................  
.................... /* standard template: size_t strlen(const char *s). 
....................    Computes length of s1 (preceding terminating 0) */ 
....................  
.................... size_t strlen(unsigned char *s) 
.................... { 
....................    unsigned char *sc; 
....................  
....................    for (sc = s; *sc != 0; sc++); 
....................    return(sc - s); 
.................... } 
....................  
.................... /* standard template: char *strtok(char *s1, const char *s2). 
....................  
....................    Finds next token in s1 delimited by a character from separator 
....................    string s2 (which can be different from call to call).  First call 
....................    starts at beginning of s1 searching for first character NOT 
....................    contained in s2; returns 0 if none is found. 
....................    If one is found, it is the start of first token (return value). 
....................    Function then searches from there for a character contained in s2. 
....................    If none is found, current token extends to end of s1, and subsequent 
....................    searches for a token will return 0.  If one is found, it is 
....................    overwritten by '\0', which terminates current token.  Function saves 
....................    pointer to following character from which next search will start. 
....................    Each subsequent call, with 0 as first argument, starts searching 
....................    from saved pointer */ 
....................  
.................... unsigned char *strtok(unsigned char *s1, unsigned char *s2) 
.................... { 
....................    unsigned char *beg, *end; 
....................    static char *save; 
....................  
....................    beg = (s1)? s1: save; 
....................    beg += strspn(beg, s2); 
....................    if (*beg == '\0') 
....................       return(0); 
....................        
....................    end = strpbrk(beg, s2); 
....................    if (end != '\0') 
....................    { 
....................       *end = '\0'; 
....................       end++; 
....................       save = end; 
....................    } 
....................    else 
....................       save = beg + strlen(beg); 
....................     
....................    return(beg); 
.................... } 
....................  
.................... /*****************************************************************/ 
.................... /*Miscellaneous functions*/ 
.................... /* standard template 
.................... maps error number in errnum to an error message string 
.................... Returns: Pointer to string 
.................... */ 
.................... #ifdef _ERRNO 
.................... unsigned char * strerror(unsigned int8 errnum) 
.................... { 
.................... static unsigned char s[13]; 
.................... switch( errnum) 
.................... { 
.................... case 0: 
....................    strcpy(s,"no errors"); 
....................    return s; 
.................... case EDOM : 
....................    strcpy(s,"domain error"); 
....................    return s; 
.................... case ERANGE: 
....................    strcpy(s,"range error"); 
....................    return s; 
.................... } 
.................... } 
.................... #ENDIF 
....................  
.................... /* standard template: size_t stricmp(const char *s1, const char *s2). 
....................    Compares s1 to s2 ignoring case (upper vs. lower) */ 
....................  
.................... signed int8 stricmp(unsigned char *s1, unsigned char *s2) 
.................... { 
....................  for(; *s1==*s2||(isalpha(*s1)&&isalpha(*s2)&&(*s1==*s2+32||*s2==*s1+32)); 
....................     s1++, s2++) 
....................     if (*s1 == '\0') 
....................        return(0); 
....................  return((*s1 < *s2) ? -1: 1); 
.................... } 
....................  
....................  
.................... /* standard template: char *strlwr(char *s). 
....................    Replaces uppercase letters by lowercase; 
....................    returns pointer to new string s */ 
....................  
.................... unsigned char *strlwr(unsigned char *s) 
.................... { 
....................    unsigned char *p; 
....................  
....................    for (p = s; *p != '\0'; p++) 
....................       if (*p >= 'A' && *p <='Z') 
....................          *p += 'a' - 'A'; 
....................    return(s); 
.................... } 
....................  
.................... /* standard template: char *strupr(char *s). 
....................    Replaces lowercase letters by upercase; 
....................    returns pointer to new string s */ 
....................  
.................... unsigned char *strupr(unsigned char *s) 
.................... { 
....................    unsigned char *p; 
....................  
....................    for (p = s; *p != '\0'; p++) 
....................       if (*p >= 'a' && *p <='z') 
....................          *p -= 'a' - 'A'; 
....................    return(s); 
.................... } 
....................  
....................  
.................... /************************************************************/ 
....................  
....................  
.................... #endif 
....................  
....................  
.................... div_t div(signed int numer, signed int denom) 
.................... { 
....................    div_t val; 
....................    val.quot = numer / denom; 
....................    val.rem = numer - (denom * val.quot); 
....................    return (val); 
.................... } 
....................  
.................... ldiv_t ldiv(signed long numer, signed long denom) 
.................... { 
....................    ldiv_t val; 
....................  
....................    val.quot = numer / denom; 
....................    val.rem = numer - (denom * val.quot); 
....................    return (val); 
.................... } 
....................  
.................... #if defined(__PCD__) 
.................... float32 atoe(char * s) 
.................... { 
....................    float32 pow10 = 1.0; 
....................    float32 result = 0.0; 
....................    unsigned int8 sign = 0; 
....................    unsigned int8 expsign = 0; 
....................    char c; 
....................    unsigned int8 ptr = 0; 
....................    unsigned int8 i; 
....................    float32 exp = 1.0; 
....................    unsigned int8 expcnt = 0; 
....................  
....................    c = s[ptr++]; 
....................  
....................    if ((c>='0' && c<='9') || c=='+' || c=='-' || c=='.' || c=='E' || c=='e') { 
....................       if(c == '-') { 
....................          sign = 1; 
....................          c = s[ptr++]; 
....................       } 
....................       if(c == '+') 
....................          c = s[ptr++]; 
....................  
....................       while((c >= '0' && c <= '9')) { 
....................          result = 10*result + c - '0'; 
....................          c = s[ptr++]; 
....................       } 
....................  
....................       if (c == '.') { 
....................          c = s[ptr++]; 
....................          while((c >= '0' && c <= '9')) { 
....................              pow10 = pow10*10; 
....................              result += (c - '0')/pow10; 
....................              c = s[ptr++]; 
....................          } 
....................       } 
....................  
....................       // Handling the exponent 
....................       if (c=='e' || c=='E') { 
....................          c = s[ptr++]; 
....................  
....................          if(c == '-') { 
....................             expsign = 1; 
....................             c = s[ptr++]; 
....................          } 
....................          if(c == '+') 
....................             c = s[ptr++]; 
....................  
....................          while((c >= '0' && c <= '9')) { 
....................             expcnt = 10*expcnt + c - '0'; 
....................             c = s[ptr++]; 
....................          } 
....................  
....................          for(i=0;i<expcnt;i++) 
....................             exp*=10; 
....................  
....................          if(expsign==1) 
....................             result/=exp; 
....................          else 
....................             result*=exp; 
....................       } 
....................    } 
....................  
....................    if (sign == 1) 
....................       result = -1*result; 
....................    return(result); 
.................... } 
.................... #endif 
....................  
.................... #if !defined(__PCD__) 
.................... float atoe(char * s) 
.................... { 
....................    float pow10 = 1.0; 
....................    float result = 0.0; 
....................    unsigned int8 sign = 0; 
....................    unsigned int8 expsign = 0; 
....................    char c; 
....................    unsigned int8 ptr = 0; 
....................    unsigned int8 i; 
....................    float exp = 1.0; 
....................    unsigned int8 expcnt = 0; 
....................  
....................    c = s[ptr++]; 
....................  
....................    if ((c>='0' && c<='9') || c=='+' || c=='-' || c=='.' || c=='E' || c=='e') { 
....................       if(c == '-') { 
....................          sign = 1; 
....................          c = s[ptr++]; 
....................       } 
....................       if(c == '+') 
....................          c = s[ptr++]; 
....................  
....................       while((c >= '0' && c <= '9')) { 
....................          result = 10*result + c - '0'; 
....................          c = s[ptr++]; 
....................       } 
....................  
....................       if (c == '.') { 
....................          c = s[ptr++]; 
....................          while((c >= '0' && c <= '9')) { 
....................              pow10 = pow10*10; 
....................              result += (c - '0')/pow10; 
....................              c = s[ptr++]; 
....................          } 
....................       } 
....................  
....................       // Handling the exponent 
....................       if (c=='e' || c=='E') { 
....................          c = s[ptr++]; 
....................  
....................          if(c == '-') { 
....................             expsign = 1; 
....................             c = s[ptr++]; 
....................          } 
....................          if(c == '+') 
....................             c = s[ptr++]; 
....................  
....................          while((c >= '0' && c <= '9')) { 
....................             expcnt = 10*expcnt + c - '0'; 
....................             c = s[ptr++]; 
....................          } 
....................  
....................          for(i=0;i<expcnt;i++) 
....................             exp*=10; 
....................  
....................          if(expsign==1) 
....................             result/=exp; 
....................          else 
....................             result*=exp; 
....................       } 
....................    } 
....................  
....................    if (sign == 1) 
....................       result = -1*result; 
....................    return(result); 
.................... } 
.................... #endif 
....................  
.................... signed int atoi(char *s) 
.................... { 
....................    signed int result; 
....................    unsigned int sign, base, index; 
....................    char c; 
....................  
....................    index = 0; 
....................    sign = 0; 
....................    base = 10; 
....................    result = 0; 
....................  
....................    if (!s) 
....................       return 0; 
....................    // Omit all preceeding alpha characters 
....................    c = s[index++]; 
....................  
....................    // increase index if either positive or negative sign is detected 
....................    if (c == '-') 
....................    { 
....................       sign = 1;         // Set the sign to negative 
....................       c = s[index++]; 
....................    } 
....................    else if (c == '+') 
....................    { 
....................       c = s[index++]; 
....................    } 
....................  
....................    if (c >= '0' && c <= '9') 
....................    { 
....................  
....................       // Check for hexa number 
....................       if (c == '0' && (s[index] == 'x' || s[index] == 'X')) 
....................       { 
....................          base = 16; 
....................          index++; 
....................          c = s[index++]; 
....................       } 
....................  
....................       // The number is a decimal number 
....................       if (base == 10) 
....................       { 
....................          while (c >= '0' && c <= '9') 
....................          { 
....................             result = 10*result + (c - '0'); 
....................             c = s[index++]; 
....................          } 
....................       } 
....................       else if (base == 16)    // The number is a hexa number 
....................       { 
....................          c = toupper(c); 
....................          while ( (c >= '0' && c <= '9') || (c >= 'A' && c<='F')) 
....................          { 
....................             if (c >= '0' && c <= '9') 
....................                result = (result << 4) + (c - '0'); 
....................             else 
....................                result = (result << 4) + (c - 'A' + 10); 
....................  
....................             c = s[index++]; 
....................             c = toupper(c); 
....................          } 
....................       } 
....................    } 
....................  
....................    if (sign == 1 && base == 10) 
....................        result = -result; 
....................  
....................    return(result); 
.................... } 
....................  
.................... signed long atol(char *s) 
.................... { 
....................    signed long result; 
....................    unsigned int sign, base, index; 
....................    char c; 
....................  
....................    index = 0; 
....................    sign = 0; 
....................    base = 10; 
....................    result = 0; 
....................  
....................    if (!s) 
....................       return 0; 
....................    c = s[index++]; 
....................  
....................    // increase index if either positive or negative sign is detected 
....................    if (c == '-') 
....................    { 
....................       sign = 1;         // Set the sign to negative 
....................       c = s[index++]; 
....................    } 
....................    else if (c == '+') 
....................    { 
....................       c = s[index++]; 
....................    } 
....................  
....................    if (c >= '0' && c <= '9') 
....................    { 
....................       if (c == '0' && (s[index] == 'x' || s[index] == 'X')) 
....................       { 
....................          base = 16; 
....................          index++; 
....................          c = s[index++]; 
....................       } 
....................  
....................       // The number is a decimal number 
....................       if (base == 10) 
....................       { 
....................          while (c >= '0' && c <= '9') 
....................          { 
....................             result = 10*result + (c - '0'); 
....................             c = s[index++]; 
....................          } 
....................       } 
....................       else if (base == 16)    // The number is a hexa number 
....................       { 
....................          c = toupper(c); 
....................          while ( (c >= '0' && c <= '9') || (c >= 'A' && c <='F')) 
....................          { 
....................             if (c >= '0' && c <= '9') 
....................                result = (result << 4) + (c - '0'); 
....................             else 
....................                result = (result << 4) + (c - 'A' + 10); 
....................  
....................             c = s[index++];c = toupper(c); 
....................          } 
....................       } 
....................    } 
....................  
....................    if (base == 10 && sign == 1) 
....................       result = -result; 
....................  
....................    return(result); 
.................... } 
....................  
.................... /* A fast routine to multiply by 10 
....................  */ 
.................... signed int32 mult_with10(int32 num) 
.................... { 
....................    return ( (num << 1) + (num << 3) ); 
.................... } 
....................  
.................... #if sizeof(long)==2 
.................... signed int32 atoi32(char *s) 
.................... { 
....................    signed int32 result; 
....................    int8 sign, base, index; 
....................    char c; 
....................  
....................    index = 0; 
....................    sign = 0; 
....................    base = 10; 
....................    result = 0; 
....................  
....................    if (!s) 
....................       return 0; 
....................    c = s[index++]; 
....................  
....................    // increase index if either positive or negative sign is detected 
....................    if (c == '-') 
....................    { 
....................       sign = 1;         // Set the sign to negative 
....................       c = s[index++]; 
....................    } 
....................    else if (c == '+') 
....................    { 
....................       c = s[index++]; 
....................    } 
....................  
....................    if (c >= '0' && c <= '9') 
....................    { 
....................       if (c == '0' && (s[index] == 'x' || s[index] == 'X')) 
....................       { 
....................          base = 16; 
....................          index++; 
....................          c = s[index++]; 
....................       } 
....................  
....................       // The number is a decimal number 
....................       if (base == 10) 
....................       { 
....................          while (c >= '0' && c <= '9') { 
....................             result = (result << 1) + (result << 3);  // result *= 10; 
....................             result += (c - '0'); 
....................             c = s[index++]; 
....................          } 
....................       } 
....................       else if (base == 16)    // The number is a hexa number 
....................       { 
....................          c = toupper(c); 
....................          while ((c >= '0' && c <= '9') || (c >= 'A' && c <='F')) 
....................          { 
....................             if (c >= '0' && c <= '9') 
....................                result = (result << 4) + (c - '0'); 
....................             else 
....................                result = (result << 4) + (c - 'A' + 10); 
....................  
....................             c = s[index++];c = toupper(c); 
....................          } 
....................       } 
....................    } 
....................  
....................    if (base == 10 && sign == 1) 
....................       result = -result; 
....................  
....................    return(result); 
.................... } 
.................... #endif 
....................  
.................... #if defined(__PCD__) 
....................  
.................... signed int48 atoi48(char *s) 
.................... { 
....................    signed int48 result; 
....................    int8 sign, base, index; 
....................    char c; 
....................  
....................    index = 0; 
....................    sign = 0; 
....................    base = 10; 
....................    result = 0; 
....................  
....................    if (!s) 
....................       return 0; 
....................    c = s[index++]; 
....................  
....................    // increase index if either positive or negative sign is detected 
....................    if (c == '-') 
....................    { 
....................       sign = 1;         // Set the sign to negative 
....................       c = s[index++]; 
....................    } 
....................    else if (c == '+') 
....................    { 
....................       c = s[index++]; 
....................    } 
....................  
....................    if (c >= '0' && c <= '9') 
....................    { 
....................       if (c == '0' && (s[index] == 'x' || s[index] == 'X')) 
....................       { 
....................          base = 16; 
....................          index++; 
....................          c = s[index++]; 
....................       } 
....................  
....................       // The number is a decimal number 
....................       if (base == 10) 
....................       { 
....................          while (c >= '0' && c <= '9') { 
....................             result = (result << 1) + (result << 3);  // result *= 10; 
....................             result += (c - '0'); 
....................             c = s[index++]; 
....................          } 
....................       } 
....................       else if (base == 16)    // The number is a hexa number 
....................       { 
....................          c = toupper(c); 
....................          while ((c >= '0' && c <= '9') || (c >= 'A' && c <='F')) 
....................          { 
....................             if (c >= '0' && c <= '9') 
....................                result = (result << 4) + (c - '0'); 
....................             else 
....................                result = (result << 4) + (c - 'A' + 10); 
....................  
....................             c = s[index++];c = toupper(c); 
....................          } 
....................       } 
....................    } 
....................  
....................    if (base == 10 && sign == 1) 
....................       result = -result; 
....................  
....................    return(result); 
.................... } 
....................  
.................... signed int64 atoi64(char *s) 
.................... { 
....................    signed int64 result; 
....................    int8 sign, base, index; 
....................    char c; 
....................  
....................    index = 0; 
....................    sign = 0; 
....................    base = 10; 
....................    result = 0; 
....................  
....................    if (!s) 
....................       return 0; 
....................    c = s[index++]; 
....................  
....................    // increase index if either positive or negative sign is detected 
....................    if (c == '-') 
....................    { 
....................       sign = 1;         // Set the sign to negative 
....................       c = s[index++]; 
....................    } 
....................    else if (c == '+') 
....................    { 
....................       c = s[index++]; 
....................    } 
....................  
....................    if (c >= '0' && c <= '9') 
....................    { 
....................       if (c == '0' && (s[index] == 'x' || s[index] == 'X')) 
....................       { 
....................          base = 16; 
....................          index++; 
....................          c = s[index++]; 
....................       } 
....................  
....................       // The number is a decimal number 
....................       if (base == 10) 
....................       { 
....................          while (c >= '0' && c <= '9') { 
....................             result = (result << 1) + (result << 3);  // result *= 10; 
....................             result += (c - '0'); 
....................             c = s[index++]; 
....................          } 
....................       } 
....................       else if (base == 16)    // The number is a hexa number 
....................       { 
....................          c = toupper(c); 
....................          while ((c >= '0' && c <= '9') || (c >= 'A' && c <='F')) 
....................          { 
....................             if (c >= '0' && c <= '9') 
....................                result = (result << 4) + (c - '0'); 
....................             else 
....................                result = (result << 4) + (c - 'A' + 10); 
....................  
....................             c = s[index++];c = toupper(c); 
....................          } 
....................       } 
....................    } 
....................  
....................    if (base == 10 && sign == 1) 
....................       result = -result; 
....................  
....................    return(result); 
.................... } 
.................... #endif 
....................  
.................... char * itoa(signed int32 num, unsigned int base, char * s) 
.................... { 
....................      unsigned int32 temp=1; 
....................      unsigned int8 i,sign=0,cnt=0; 
....................      char c; 
....................  
....................      if(num<0) { 
....................          sign=1;        // Check for negative number 
....................          num*=-1; 
....................      } 
....................  
....................      while(temp>0) { 
....................          temp=(num/base); 
....................          s[cnt]=(num%base)+'0';    // Conversion 
....................  
....................          if(s[cnt]>0x39) 
....................             s[cnt]+=0x7; 
....................  
....................          cnt++; 
....................          num=temp; 
....................      } 
....................  
....................      if(sign==1) { 
....................          s[cnt]=0x2D;      // Negative sign 
....................          cnt++; 
....................      } 
....................  
....................      for(i = 0;i<(int8)(cnt/2);i++) { 
....................  
....................          c=s[i]; 
....................          s[i]=s[cnt-i-1];        // Reverse the number 
....................          s[cnt-i-1]=c; 
....................      } 
....................      s[cnt]='\0';     // End the string 
....................      return s; 
.................... } 
....................  
.................... #if defined(__PCD__) 
....................  
.................... char * itoa(signed int48 num, unsigned int base, char * s) 
.................... { 
....................      unsigned int48 temp=1; 
....................      unsigned int8 i,sign=0,cnt=0; 
....................      char c; 
....................  
....................      if(num<0) { 
....................          sign=1;        // Check for negative number 
....................          num*=-1; 
....................      } 
....................  
....................      while(temp>0) { 
....................          temp=(num/base); 
....................          s[cnt]=(num%base)+'0';    // Conversion 
....................  
....................          if(s[cnt]>0x39) 
....................             s[cnt]+=0x7; 
....................  
....................          cnt++; 
....................          num=temp; 
....................      } 
....................  
....................      if(sign==1) { 
....................          s[cnt]=0x2D;      // Negative sign 
....................          cnt++; 
....................      } 
....................  
....................      for(i = 0;i<(int8)(cnt/2);i++) { 
....................  
....................          c=s[i]; 
....................          s[i]=s[cnt-i-1];        // Reverse the number 
....................          s[cnt-i-1]=c; 
....................      } 
....................      s[cnt]='\0';     // End the string 
....................      return s; 
.................... } 
....................  
.................... char * itoa(signed int64 num, unsigned int base, char * s) 
.................... { 
....................      unsigned int64 temp=1; 
....................      unsigned int8 i,sign=0,cnt=0; 
....................      char c; 
....................       
....................      if(num<0) { 
....................          sign=1;        // Check for negative number 
....................          num*=-1;         
....................      } 
....................  
....................      while(temp>0) { 
....................          temp=(num/base); 
....................          s[cnt]=(num%base)+'0';    // Conversion 
....................  
....................          if(s[cnt]>0x39) 
....................             s[cnt]+=0x7; 
....................              
....................          cnt++; 
....................          num=temp; 
....................      } 
....................  
....................      if(sign==1) { 
....................          s[cnt]=0x2D;      // Negative sign 
....................          cnt++; 
....................      } 
....................  
....................      for(i = 0;i<(int8)(cnt/2);i++) { 
....................  
....................          c=s[i]; 
....................          s[i]=s[cnt-i-1];        // Reverse the number 
....................          s[cnt-i-1]=c; 
....................      } 
....................      s[cnt]='\0';     // End the string 
....................      return s; 
.................... } 
....................  
.................... #endif 
....................  
.................... float strtof(char *s, char *endptr) 
.................... { 
....................    float pow10 = 1.0; 
....................    float result = 0.0; 
....................    int1 skip = 1, sign = 0, point = 0; 
....................    char c; 
....................    unsigned int8 ptr = 0; 
....................  
....................    if (!s) 
....................       return 0; 
....................  
....................    for(c=s[ptr++]; c!=0; c=s[ptr++]) 
....................    { 
....................       if (skip && !isspace(c)) 
....................       { 
....................          skip = 0; 
....................          if (c == '+') 
....................          { 
....................             sign = 0; 
....................             continue; 
....................          }             
....................          else if (c == '-') 
....................          { 
....................             sign = 1; 
....................             continue; 
....................          } 
....................       } 
....................       if (!skip && (c == '.') && !point) 
....................          point = 1; 
....................       else if (!skip && isdigit(c)) 
....................       { 
....................          c -= '0'; 
....................          if (point) 
....................          { 
....................             pow10 = pow10 * 10.0; 
....................             result += (float)c / pow10;    
....................          } 
....................          else 
....................          { 
....................             result = 10.0 * result + (float)c; 
....................          } 
....................       } 
....................       else if (!skip) 
....................          break; 
....................    } 
....................  
....................    if (sign) 
....................       result = -1*result; 
....................        
....................    if(endptr) 
....................    { 
....................       if (ptr) { 
....................          ptr--; 
....................        #IF LONG_POINTERS  
....................          *((int16 *)endptr)= s+ptr;  
....................        #ELSE 
....................          *((char *)endptr)=s+ptr; 
....................        #ENDIF 
....................       } 
....................       else 
....................       { 
....................       #IF LONG_POINTERS 
....................       *((int16 *)endptr)= s;  
....................       #ELSE 
....................       *((char *)endptr)=s; 
....................       #ENDIF 
....................       } 
....................    } 
....................  
....................    return(result); 
.................... } 
....................  
.................... #if defined(__PCD__) 
.................... float48 strtof48(char *s, char *endptr) 
.................... { 
....................    float48 pow10 = 1.0; 
....................    float48 result = 0.0; 
....................    int1 skip = 1, sign = 0, point = 0; 
....................    char c; 
....................    unsigned int8 ptr = 0; 
....................  
....................    if (!s) 
....................       return 0; 
....................  
....................    for(c=s[ptr++]; c!=0; c=s[ptr++]) 
....................    { 
....................       if (skip && !isspace(c)) 
....................       { 
....................          skip = 0; 
....................          if (c == '+') 
....................          { 
....................             sign = 0; 
....................             continue; 
....................          }             
....................          else if (c == '-') 
....................          { 
....................             sign = 1; 
....................             continue; 
....................          } 
....................       } 
....................       if (!skip && (c == '.') && !point) 
....................          point = 1; 
....................       else if (!skip && isdigit(c)) 
....................       { 
....................          c -= '0'; 
....................          if (point) 
....................          { 
....................             pow10 = pow10 * 10.0; 
....................             result += (float48)c / pow10;    
....................          } 
....................          else 
....................          { 
....................             result = 10.0 * result + (float48)c; 
....................          } 
....................       } 
....................       else if (!skip) 
....................          break; 
....................    } 
....................  
....................    if (sign) 
....................       result = -1*result; 
....................        
....................    if(endptr) 
....................    { 
....................       if (ptr) { 
....................          ptr--; 
....................        #IF LONG_POINTERS  
....................          *((int16 *)endptr)= s+ptr;  
....................        #ELSE 
....................          *((char *)endptr)=s+ptr; 
....................        #ENDIF 
....................       } 
....................       else 
....................       { 
....................       #IF LONG_POINTERS 
....................       *((int16 *)endptr)= s;  
....................       #ELSE 
....................       *((char *)endptr)=s; 
....................       #ENDIF 
....................       } 
....................    } 
....................  
....................    return(result); 
.................... } 
....................  
.................... float64 strtod(char *s, char *endptr) 
.................... { 
....................    float64 pow10 = 1.0; 
....................    float64 result = 0.0; 
....................    int1 skip = 1, sign = 0, point = 0; 
....................    char c; 
....................    unsigned int8 ptr = 0; 
....................  
....................    if (!s) 
....................       return 0; 
....................  
....................    for(c=s[ptr++]; c!=0; c=s[ptr++]) 
....................    { 
....................       if (skip && !isspace(c)) 
....................       { 
....................          skip = 0; 
....................          if (c == '+') 
....................          { 
....................             sign = 0; 
....................             continue; 
....................          }             
....................          else if (c == '-') 
....................          { 
....................             sign = 1; 
....................             continue; 
....................          } 
....................       } 
....................       if (!skip && (c == '.') && !point) 
....................          point = 1; 
....................       else if (!skip && isdigit(c)) 
....................       { 
....................          c -= '0'; 
....................          if (point) 
....................          { 
....................             pow10 = pow10 * 10.0; 
....................             result += (float64)c / pow10;    
....................          } 
....................          else 
....................          { 
....................             result = 10.0 * result + (float64)c; 
....................          } 
....................       } 
....................       else if (!skip) 
....................          break; 
....................    } 
....................  
....................    if (sign) 
....................       result = -1*result; 
....................        
....................    if(endptr) 
....................    { 
....................       if (ptr) { 
....................          ptr--; 
....................        #IF LONG_POINTERS  
....................          *((int16 *)endptr)= s+ptr;  
....................        #ELSE 
....................          *((char *)endptr)=s+ptr; 
....................        #ENDIF 
....................       } 
....................       else 
....................       { 
....................       #IF LONG_POINTERS 
....................       *((int16 *)endptr)= s;  
....................       #ELSE 
....................       *((char *)endptr)=s; 
....................       #ENDIF 
....................       } 
....................    } 
....................  
....................    return(result); 
.................... } 
.................... #endif 
....................  
.................... unsigned long strtoul(char *s, char *endptr, signed int base) 
.................... { 
....................    char *sc,*s1,*sd; 
....................    unsigned long x=0; 
....................    char sign; 
....................    char digits[]="0123456789abcdefghijklmnopqstuvwxyz"; 
....................    for(sc=s;isspace(*sc);++sc); 
....................    sign=*sc=='-'||*sc=='+'?*sc++:'+'; 
....................    if(sign=='-' || base <0 || base ==1|| base >36) // invalid base 
....................    goto StrtoulGO; 
....................  
....................    else if (base) 
....................    { 
....................       if(base==16 && *sc =='0'&&(sc[1]=='x' || sc[1]=='X')) 
....................          sc+=2; 
....................       if(base==8 && *sc =='0') 
....................          sc+=1; 
....................       if(base==2 && *sc =='0'&&sc[1]=='b') 
....................          sc+=2; 
....................  
....................    } 
....................    else if(*sc!='0') // base is 0, find base 
....................       base=10; 
....................    else if (sc[1]=='x' || sc[1]=='X') 
....................       base =16,sc+=2; 
....................    else if(sc[1]=='b') 
....................       base=2,sc+=2; 
....................    else 
....................       base=8; 
....................    for (s1=sc;*sc=='0';++sc);// skip leading zeroes 
....................    sd=memchr(digits,tolower(*sc),base); 
....................    for(; sd!=0; ) 
....................    { 
....................       x=x*base+(int16)(sd-digits); 
....................       ++sc; 
....................       sd=memchr(digits,tolower(*sc),base); 
....................    } 
....................    if(s1==sc) 
....................    { 
....................    StrtoulGO: 
....................       if (endptr) 
....................       { 
....................          #IF LONG_POINTERS 
....................          *((int16 *)endptr)= s;  
....................          #ELSE 
....................          *((char *)endptr)=s; 
....................          #ENDIF 
....................          } 
....................    return 0; 
....................    } 
....................    if (endptr) 
....................    { 
....................          #IF LONG_POINTERS 
....................          *((int16 *)endptr)= sc;  
....................          #ELSE 
....................          *((char *)endptr)=sc;  
....................          #ENDIF 
....................    } 
....................    return x; 
.................... } 
....................  
....................  
.................... signed long strtol(char *s,char *endptr, signed int base) 
.................... { 
....................    char *sc,*s1,*sd; 
....................    signed long x=0; 
....................    char sign; 
....................    char digits[]="0123456789abcdefghijklmnopqstuvwxyz"; 
....................    for(sc=s;isspace(*sc);++sc); 
....................    sign=*sc=='-'||*sc=='+'?*sc++:'+'; 
....................    if (base <0 || base ==1|| base >36) // invalid base 
....................    goto StrtolGO; 
....................    else if (base) 
....................    { 
....................       if(base==16 && *sc =='0'&&(sc[1]=='x' || sc[1]=='X')) 
....................          sc+=2; 
....................       if(base==8 && *sc =='0') 
....................          sc+=1; 
....................       if(base==2 && *sc =='0'&&sc[1]=='b') 
....................          sc+=2; 
....................  
....................    } 
....................    else if(*sc!='0') // base is 0, find base 
....................       base=10; 
....................    else if (sc[1]=='x' || sc[1]=='X') 
....................       base =16,sc+=2; 
....................    else if(sc[1]=='b') 
....................       base=2,sc+=2; 
....................    else 
....................       base=8; 
....................    for (s1=sc;*sc=='0';++sc);// skip leading zeroes 
....................  
....................    sd=memchr(digits,tolower(*sc),base); 
....................    for(;sd!=0;) 
....................    { 
....................       x=x*base+(int16)(sd-digits); 
....................       ++sc; 
....................       sd=memchr(digits,tolower(*sc),base); 
....................    } 
....................    if(s1==sc) 
....................    { 
....................    StrtolGO: 
....................       if (endptr) 
....................       { 
....................          #IF LONG_POINTERS 
....................          *((int16 *)endptr)= s;  
....................          #ELSE 
....................          *((char *)endptr)=s; 
....................          #ENDIF 
....................       } 
....................    return 0; 
....................    } 
....................    if(sign=='-') 
....................       x  =-x; 
....................    if (endptr) 
....................    { 
....................         #IF LONG_POINTERS 
....................          *((int16 *)endptr)= sc;  
....................         #ELSE 
....................         *((char *)endptr)=sc; 
....................         #ENDIF 
....................    } 
....................    return x; 
.................... } 
....................  
.................... signed int8 system(char *string) 
.................... { 
....................    return 0; 
.................... } 
....................  
.................... size_t mblen(char *s,size_t n) 
.................... { 
....................    return strlen(s); 
.................... } 
....................  
.................... int8 mbtowc(wchar_t *pwc,char *s,size_t n) 
.................... { 
....................    *pwc=*s; 
....................    return 1; 
.................... } 
....................  
.................... int8 wctomb(char *s,wchar_t wchar) 
.................... { 
....................    *s=wchar; 
....................    return 1; 
.................... } 
....................  
.................... size_t mbstowcs(wchar_t *pwcs,char *s,size_t n) 
.................... { 
....................    strncpy(pwcs,s,n); 
....................    return strlen(pwcs); 
.................... } 
....................  
.................... size_t wcstombs(char *s,wchar_t *pwcs,size_t n) 
.................... { 
....................    strncpy(s,pwcs,n); 
....................    return strlen(s); 
.................... } 
....................  
.................... //--------------------------------------------------------------------------- 
.................... // The random number implementation 
.................... //--------------------------------------------------------------------------- 
....................  
.................... unsigned int32 _Randseed; 
....................  
.................... unsigned int16 rand(void) 
.................... { 
....................    _Randseed = _Randseed * 1103515245 + 12345; 
....................    return ((unsigned int16)(_Randseed >> 16) % RAND_MAX); 
.................... } 
....................  
.................... void srand(unsigned int32 seed) 
.................... { 
....................    _Randseed = seed; 
.................... } 
....................  
.................... //--------------------------------------------------------------------------- 
.................... // Searching and sorting utilities implementation 
.................... //--------------------------------------------------------------------------- 
....................  
.................... #if !defined(__PCD__) 
.................... typedef signed int8 (*_Cmpfun)(char * p1,char * p2);  
.................... #else  
.................... typedef signed int16 (*_Cmpfun)(char * p1,char * p2);  
.................... #endif 
....................  
....................  
....................  
.................... void qsort(char * qdata, unsigned int qitems, unsigned int qsize, _Cmpfun cmp) { 
....................    unsigned int m,j,i,l; 
....................    int1 done; 
....................    unsigned int8 t[16]; 
....................  
....................    m = qitems/2; 
....................    while( m > 0 ) { 
....................      for(j=0; j<(qitems-m); ++j) { 
....................         i = j; 
....................         do 
....................         { 
....................            done=1; 
....................            l = i+m; 
....................            if( (*cmp)(qdata+i*qsize, qdata+l*qsize) > 0 ) { 
....................               memcpy(t, qdata+i*qsize, qsize); 
....................               memcpy(qdata+i*qsize, qdata+l*qsize, qsize); 
....................               memcpy(qdata+l*qsize, t, qsize); 
....................               if(m <= i) 
....................                 i -= m; 
....................                 done = 0; 
....................            } 
....................         } while(!done); 
....................      } 
....................      m = m/2; 
....................    } 
.................... } 
....................  
....................  
.................... char *bsearch(char *key, char *base, size_t num, size_t width,_Cmpfun cmp) 
.................... { 
....................    char *p, *q; 
....................    size_t n; 
....................    size_t pivot; 
....................    signed int val; 
....................  
....................    p = base; 
....................    n = num; 
....................  
....................    while (n > 0) 
....................    { 
....................       pivot = n >> 1; 
....................       q = p + width * pivot; 
....................  
....................       val = (*cmp)(key, q); 
....................  
....................       if (val < 0) 
....................          n = pivot; 
....................       else if (val == 0) 
....................          return ((char *)q); 
....................       else { 
....................          p = q + width; 
....................          n -= pivot + 1; 
....................       } 
....................    } 
....................  
....................    return NULL;      // There's no match 
.................... } 
....................  
....................  
.................... #endif 
....................  
.................... #use delay(clock=12 Mhz, crystal= 12 MHz)   // Selecciona la velocidad del oscilador interno 
*
00DC:  CLRF   FEA
00DE:  MOVLW  5C
00E0:  MOVWF  FE9
00E2:  MOVF   FEF,W
00E4:  BZ    0102
00E6:  MOVLW  03
00E8:  MOVWF  01
00EA:  CLRF   00
00EC:  DECFSZ 00,F
00EE:  BRA    00EC
00F0:  DECFSZ 01,F
00F2:  BRA    00EA
00F4:  MOVLW  E3
00F6:  MOVWF  00
00F8:  DECFSZ 00,F
00FA:  BRA    00F8
00FC:  NOP   
00FE:  DECFSZ FEF,F
0100:  BRA    00E6
0102:  RETURN 0
.................... #use i2c(Master,Fast=100000, sda=PIN_D6, scl=PIN_D7,force_sw) 
0104:  MOVLW  08
0106:  MOVWF  01
0108:  MOVLW  02
010A:  MOVWF  00
010C:  DECFSZ 00,F
010E:  BRA    010C
0110:  BCF    F8C.7
0112:  BCF    F95.7
0114:  MOVLW  02
0116:  MOVWF  00
0118:  DECFSZ 00,F
011A:  BRA    0118
011C:  RLCF   x60,F
011E:  BCF    F8C.6
0120:  BTFSC  FD8.0
0122:  BSF    F95.6
0124:  BTFSS  FD8.0
0126:  BCF    F95.6
0128:  BSF    F95.7
012A:  BTFSS  F83.7
012C:  BRA    012A
012E:  DECFSZ 01,F
0130:  BRA    0108
0132:  MOVLW  02
0134:  MOVWF  00
0136:  DECFSZ 00,F
0138:  BRA    0136
013A:  BCF    F8C.7
013C:  BCF    F95.7
013E:  NOP   
0140:  BSF    F95.6
0142:  MOVLW  02
0144:  MOVWF  00
0146:  DECFSZ 00,F
0148:  BRA    0146
014A:  MOVLW  02
014C:  MOVWF  00
014E:  DECFSZ 00,F
0150:  BRA    014E
0152:  BSF    F95.7
0154:  BTFSS  F83.7
0156:  BRA    0154
0158:  CLRF   01
015A:  MOVLW  02
015C:  MOVWF  00
015E:  DECFSZ 00,F
0160:  BRA    015E
0162:  BTFSC  F83.6
0164:  BSF    01.0
0166:  BCF    F8C.7
0168:  BCF    F95.7
016A:  BCF    F8C.6
016C:  BCF    F95.6
016E:  RETURN 0
....................  
.................... #include "funciones.h" 
.................... /** 
.................... *	\file funciones.h 
.................... *	\brief Resumen del archivo 
.................... *	\details Descripcion detallada del archivo 
.................... *	\author Postemsky Marcos 
.................... *	\date 17-09-2016 11:39:08 
.................... */ 
....................  
.................... #include <i2c_Flex_LCD.h> 
.................... //----------------------------------------------------------------------------- 
.................... // Title:         i2c_Flex_LCD 
.................... // Description:   Driver for common LCD with 1/2/3 or 4 row modules using PCF8574T interface board with I2C protocol. 
.................... // Date:          Nov-2013 
.................... // Ver.Rev.:      1.0 
.................... // Author:        Hugo Silva (sergio-hugo@bol.com.br) #Based on the routines of 20X4_LCD_I2C_DRIVER.h from Pumrin S. 
.................... //----------------------------------------------------------------------------- 
.................... // 
.................... // lcd_init() Must be called before any other function. 
.................... // 
.................... // lcd_putc(c) Will display c on the next position of the LCD. 
.................... //  
.................... //     \f Clear LCD dispay 
.................... //     \1 Set write position on LCD Line 1 
.................... //     \2 Set write position on LCD Line 2 
.................... //     \3 Set write position on LCD Line 3 
.................... //     \4 Set write position on LCD Line 4 
.................... // 
.................... //     lcd_gotoxy(x,y) Set write position on LCD (upper left is 1,1) 
.................... // 
.................... //----------------------------------------------------------------------------- 
.................... // LCD pins D0-D3 are not used. 
.................... //----------------------------------------------------------------------------- 
.................... // 
.................... // Commment   : Control of a compatible LCD HITACHI from a bus I2C with 
.................... //              an EXPANDER of I/O with connection I2C. The tests of these 
.................... //              routines have been programmed using the IC PCF8574T of Phillips. 
.................... //              I used 4 bits mode programming. The 8 bits mode programming 
.................... //              is possible if you use 2 x PCF8574T. 
.................... // 
.................... // As defined in the following structure the pin connection is as follows: 
.................... // 
.................... //  PCF8574P     LCD 
.................... //  ========     ====== 
.................... //     P0        RS 
.................... //     P1        RW 
.................... //     P2        Enable  
.................... //     P3        Led Backlight 
.................... //     P4        D4 
.................... //     P5        D5 
.................... //     P6        D6 
.................... //     P7        D7 
.................... // 
.................... //  The SCL and SDA pins should be pull-up resistor as shown below: 
.................... // 
.................... //             +5v 
.................... //               | 
.................... //               < 
.................... //               > 4.7K        
.................... //               <          
.................... //To PIC         |          To i2c slave 
.................... //pin xx ------------------ SDA pin  
.................... //(SDA)                      
.................... //              +5v 
.................... //               | 
.................... //               < 
.................... //               > 4.7K        
.................... //               <          
.................... //To PIC         |          To i2c slave 
.................... //pin xx ------------------ SCL pin  
.................... //(SCL) 
.................... // 
.................... //To PIC                    To i2c slave 
.................... //Vss pin ----------------- Vss or ground pin  
.................... //                | 
.................... //              ----- 
.................... //               ---  Ground 
.................... //                -  
.................... //  
.................... // THIS DOCUMENT IS PROVIDED TO THE USER "AS IS" 
.................... //----------------------------------------------------------------------------- 
.................... //For PCF8574T the addressing is: 
....................  
.................... //Jp3 Jp2 Jp1 
.................... //A2 A1 A0  Hex 
.................... //L L L  0x40 
.................... //L L H  0x42 
.................... //L H L  0x44 
.................... //L H H  0x46 
.................... //H L L  0x48 
.................... //H L H  0x4A 
.................... //H H L  0x4C 
.................... //H H H  0x4E 
....................  
.................... //---------------------------------------------------------------------------- 
.................... #define LCD_ADDR       0x4E //I2C slave address for LCD module 
....................  
.................... #define ON             1 
.................... #define OFF            0 
.................... #define RS             0b00000001  //P0 - PCF8574T Pin connected to RS 
.................... #define RW             0b00000010  //P1 - PCF8574T Pin connected to RW 
.................... #define EN             0b00000100  //P2 - PCF8574T Pin connected to EN 
.................... #define BACKLIGHT_LED  0b00001000  //P3 - PCF8574T Pin connected to BACKLIGHT LED 
....................  
.................... #define lcd_line_one   0x80   // LCD RAM address for line 1 
.................... #define lcd_line_two   0xC0   // LCD RAM address for line 2 
.................... #define lcd_line_three 0x94   // LCD RAM address for line 3 
.................... #define lcd_line_four  0xD4   // LCD RAM address for line 4 
....................   
.................... byte address; 
.................... int1 lcd_backlight=ON; 
....................  
.................... void i2c_lcd_backlight_On(){ 
....................       lcd_backlight=ON; 
.................... } 
....................  
.................... void i2c_lcd_backlight_Off(){ 
....................       lcd_backlight=OFF; 
.................... } 
....................  
.................... void i2c_send_nibble(unsigned char data) 
....................    {    
....................         i2c_start(); 
....................         delay_us(20); 
....................         i2c_write(LCD_ADDR); //the slave addresse 
....................         delay_us(20); 
....................         i2c_write(data); 
....................         delay_us(20); 
....................         i2c_stop(); 
....................         delay_us(20); 
....................    } 
....................  
.................... void lcd_send_byte(unsigned char data) 
....................    { 
....................         if (lcd_backlight) data=data|EN|BACKLIGHT_LED; else data=data|EN; //set pin EN 
....................         i2c_send_nibble(data); 
....................         data=data-4;       //toggle EN back to 0 
....................         i2c_send_nibble(data); 
....................    } 
....................     
.................... void lcd_clear() 
.................... { 
....................     lcd_send_byte(0x00); 
....................     lcd_send_byte(0x10); 
....................     delay_ms(2); 
.................... } 
....................  
.................... void lcd_init() 
.................... { 
....................     delay_ms(200); //LCD power up delay 
....................         
....................    //Request works on the command by set the RS = 0 R/W = 0 write 
....................         lcd_send_byte(0x00); 
....................         lcd_send_byte(0x10); 
....................         lcd_send_byte(0x00); 
....................         lcd_send_byte(0x00); 
....................         lcd_send_byte(0x10); 
....................            //First state in 8 bit mode 
....................         lcd_send_byte(0x30); 
....................         lcd_send_byte(0x30); 
....................            //Then set to 4-bit mode 
....................         lcd_send_byte(0x30); 
....................         lcd_send_byte(0x20); 
....................            //mode 4 bits, 2 lines, characters 5 x 7 (28 h) 
....................         lcd_send_byte(0x20); 
....................         lcd_send_byte(0x80); 
....................            //no need cursor on (0Ch) 
....................         lcd_send_byte(0x00); 
....................         lcd_send_byte(0xC0); 
....................            //the cursor moves to the left (06 h) 
....................         lcd_send_byte(0x00); 
....................         lcd_send_byte(0x60); 
....................            //clears the display 
....................         lcd_clear(); 
.................... } 
....................  
.................... void lcd_gotoxy( byte x, byte y) 
*
150C:  CLRF   21
.................... {      
.................... static char data; 
....................       
....................    switch(y) 
....................    { 
....................       case 1:  address= lcd_line_one;     break; 
....................       case 2:  address= lcd_line_two;     break; 
....................       case 3:  address= lcd_line_three;   break; 
....................       case 4:  address= lcd_line_four;    break; 
....................       default: address= lcd_line_one;     break;  
....................    } 
....................   
....................    address+=x-1; 
....................    data=address&0xF0; 
....................    lcd_send_byte(data); 
....................    data=address&0x0F; 
....................    data=data<<4; 
....................    lcd_send_byte(data); 
.................... } 
....................  
.................... //Display the character on LCD screen. 
.................... void LCD_PUTC(char in_data) 
.................... { 
....................  char data;      
....................   switch(in_data) 
....................    {  
....................      case '\f': lcd_clear()    ;  break;                
....................      case '\1': lcd_gotoxy(1,1);  break; 
....................      case '\2': lcd_gotoxy(1,2);  break; 
....................      case '\3': lcd_gotoxy(1,3);  break; 
....................      case '\4': lcd_gotoxy(1,4);  break; 
....................  
....................      default: 
....................         data=in_data&0xF0; 
....................         data=data|RS; //set RS pin to 1 
....................         lcd_send_byte(data); 
....................         data=in_data&0x0F; 
....................         data=data<<4; 
....................         data=data|RS; //set RS pin to 1 
....................         lcd_send_byte(data); 
....................      break; 
....................    } 
.................... }  
....................  
.................... #include <MAX191.h> 
.................... /*  
....................  * File:   MAX191.h 
....................  * Author: MARCOS 
....................  * 
....................  * Created on 23 de septiembre de 2016, 08:14 
....................  */ 
....................  
.................... #ifndef MAX192_H 
.................... #define MAX192_H 
....................  
.................... #define ADC_CS1 PIN_A1 
.................... #define ADC_SCLK PIN_A2 
.................... #define ADC_DOUT PIN_A3 
....................  
.................... unsigned long leer_ADC(ADC){ 
....................     unsigned long dato; 
....................     int i; 
....................     output_low (ADC_SCLK); 
....................     output_low (ADC_CS1); 
....................      
....................      
....................     if (ADC==2){ 
....................          
....................         output_low (ADC_CS1); // modo CPOL = 0, CPHA = 0 
....................         delay_us(1); 
....................          
....................         for(i=0;i<16;i++){ 
....................           output_high(ADC_SCLK); 
....................           shift_left(&dato,2,input(ADC_DOUT));  
....................           output_low(ADC_SCLK);  
....................         } 
....................   
....................         output_low (ADC_SCLK); 
....................         output_high (ADC_CS1); 
....................     } 
....................  
....................     dato= (dato>>2)& 0x0FFF; 
....................     return(dato); 
.................... } 
.................... #endif 
....................  
....................  
.................... #include <math.h> 
.................... //////////////////////////////////////////////////////////////////////////// 
.................... ////        (C) Copyright 1996,2011 Custom Computer Services            //// 
.................... //// This source code may only be used by licensed users of the CCS C   //// 
.................... //// compiler.  This source code may only be distributed to other       //// 
.................... //// licensed users of the CCS C compiler.  No other use, reproduction  //// 
.................... //// or distribution is permitted without written permission.           //// 
.................... //// Derivative programs created using this software in object code     //// 
.................... //// form are not restricted in any way.                                //// 
.................... //////////////////////////////////////////////////////////////////////////// 
.................... ////                                                                    //// 
.................... //// History:                                                           //// 
.................... ////  * 9/20/2001 :  Improvments are made to sin/cos code.              //// 
.................... ////                 The code now is small, much faster,                //// 
.................... ////                 and more accurate.                                 //// 
.................... ////  * 2/21/2007 :  Compiler handles & operator differently and does   //// 
.................... ////                 not return generic (int8 *) so type cast is done   //// 
.................... ////  * 6/19/2010 :  Divisions by constants converted to multiplication //// 
.................... ////                 by its inverse to improve computation speed        //// 
.................... ////  * 1/21/2011 :  Constants used for double precision math updated   //// 
.................... ////                 Updated routines include 64 bit versions of cos,   //// 
.................... ////                 asin,atan,exp,log and dependant functions          //// 
.................... ////  * 1/31/2011 :  Optimized current 32-bit float routines for cos    //// 
.................... ////                 and log function                                   //// 
.................... ////  * 6/13/2011 :  Fixed PCD overload CEIL_FLOOR functions for values //// 
.................... ////                 greater then 10000000 and less then -10000000      //// 
.................... ////                                                                    //// 
.................... //////////////////////////////////////////////////////////////////////////// 
....................  
.................... #ifndef MATH_H 
.................... #define MATH_H 
....................  
.................... #ifdef PI 
.................... #undef  PI 
.................... #endif 
.................... #define PI     3.1415926535897932 
....................  
....................  
.................... #define SQRT2  1.4142135623730950 
....................  
.................... //float const ps[4] = {5.9304945, 21.125224, 8.9403076, 0.29730279}; 
.................... //float const qs[4] = {1.0000000, 15.035723, 17.764134, 2.4934718}; 
....................  
.................... ///////////////////////////// Round Functions ////////////////////////////// 
....................  
.................... float32 CEIL_FLOOR(float32 x, unsigned int8 n) 
.................... { 
....................    float32 y, res; 
....................    unsigned int16 l; 
....................    int1 s; 
....................  
....................    s = 0; 
....................    y = x; 
....................  
....................    if (x < 0) 
....................    { 
....................       s = 1; 
....................       y = -y; 
....................    } 
....................  
....................    if (y <= 32768.0) 
....................       res = (float32)(unsigned int16)y; 
....................  
....................  else if (y < 10000000.0) 
....................    {  
....................       l = (unsigned int16)(y*0.000030517578125); 
....................       y = 32768.0*(y*0.000030517578125 - (float32)l); 
....................       res = 32768.0*(float32)l; 
....................       res += (float32)(unsigned int16)y; 
....................    } 
....................  
....................  else 
....................   res = y; 
....................  
....................  y = y - (float32)(unsigned int16)y; 
....................  
....................  if (s) 
....................   res = -res; 
....................  
....................  if (y != 0) 
....................  { 
....................   if (s == 1 && n == 0) 
....................    res -= 1.0; 
....................  
....................   if (s == 0 && n == 1) 
....................    res += 1.0; 
....................  } 
....................  if (x == 0) 
....................     res = 0; 
....................  
....................  return (res); 
.................... } 
....................  
.................... // Overloaded Functions to take care for new Data types in PCD 
.................... // Overloaded function CEIL_FLOOR() for data type - Float48 
.................... #if defined(__PCD__) 
.................... float48 CEIL_FLOOR(float48 x, unsigned int8 n) 
.................... { 
....................    float48 y, res; 
....................    unsigned int32 l; 
....................    int1 s; 
....................  
....................    s = 0; 
....................    y = x; 
....................  
....................    if (x < 0) 
....................    { 
....................       s = 1; 
....................       y = -y; 
....................    } 
....................  
....................    if (y <= 32768.0) 
....................       res = (float48)(unsigned int16)y; 
....................  
....................    else if (y < 549755813888.0) 
....................    { 
....................       l = (unsigned int32)(y*0.000030517578125); 
....................       y = 32768.0*(y*0.000030517578125 - (float48)l); 
....................       res = 32768.0*(float48)l; 
....................       res += (float48)(unsigned int16)y; 
....................    } 
....................    else 
....................    {   
....................       res = y; 
....................       y = 0.0; 
....................    } 
....................     
....................    if(y != 0) 
....................       y = y - (float48)(unsigned int16)y; 
....................  
....................    if (s) 
....................       res = -res; 
....................  
....................    if (y != 0) 
....................    { 
....................       if (s == 1 && n == 0) 
....................          res -= 1.0; 
....................  
....................       if (s == 0 && n == 1) 
....................          res += 1.0; 
....................    } 
....................    if (x == 0) 
....................       res = 0; 
....................  
....................    return (res); 
.................... } 
....................  
....................  
.................... // Overloaded function CEIL_FLOOR() for data type - Float64 
.................... float64 CEIL_FLOOR(float64 x, unsigned int8 n) 
.................... { 
....................    float64 y, res; 
....................    int64 l; 
....................    int1 s; 
....................  
....................    s = 0; 
....................    y = x; 
....................  
....................    if (x < 0) 
....................    { 
....................       s = 1; 
....................       y = -y; 
....................    } 
....................  
....................    if (y <= 32768.0) 
....................       res = (float64)(unsigned int16)y; 
....................    else if (y < 4503599627370496.0) 
....................    { 
....................       l = (int64)(y*0.000030517578125); 
....................       y = 32768.0*(y*0.000030517578125 - (float64)l); 
....................       res = 32768.0*(float64)l; 
....................       res += (float64)(unsigned int16)y; 
....................    } 
....................    else 
....................    { 
....................       res = y; 
....................       y = 0.0; 
....................    } 
....................     
....................    if(y != 0) 
....................       y = y - (float64)(unsigned int16)y; 
....................  
....................    if (s) 
....................       res = -res; 
....................  
....................    if (y != 0) 
....................    { 
....................       if (s == 1 && n == 0) 
....................          res -= 1.0; 
....................  
....................       if (s == 0 && n == 1) 
....................          res += 1.0; 
....................    } 
....................     
....................    if (x == 0) 
....................       res = 0; 
....................  
....................    return (res); 
.................... } 
.................... #endif 
....................  
.................... //////////////////////////////////////////////////////////////////////////// 
.................... //   float floor(float x) 
.................... //////////////////////////////////////////////////////////////////////////// 
.................... // Description : rounds down the number x. 
.................... // Date : N/A 
.................... // 
.................... float32 floor(float32 x) 
.................... { 
....................    return CEIL_FLOOR(x,0); 
.................... } 
.................... // Following 2 functions are overloaded functions of floor() for PCD 
.................... // Overloaded function floor() for data type - Float48 
.................... #if defined(__PCD__) 
.................... float48 floor(float48 x) 
.................... { 
....................    return CEIL_FLOOR(x, 0); 
.................... } 
....................  
.................... // Overloaded function floor() for data type - Float64 
.................... float64 floor(float64 x) 
.................... { 
....................    return CEIL_FLOOR(x, 0); 
.................... } 
.................... #endif 
....................  
....................  
.................... //////////////////////////////////////////////////////////////////////////// 
.................... //   float ceil(float x) 
.................... //////////////////////////////////////////////////////////////////////////// 
.................... // Description : rounds up the number x. 
.................... // Date : N/A 
.................... // 
.................... float32 ceil(float32 x) 
.................... { 
....................    return CEIL_FLOOR(x, 1); 
.................... } 
.................... // Following 2 functions are overloaded functions of ceil() for PCD 
.................... // Overloaded function ceil() for data type - Float48 
.................... #if defined(__PCD__) 
.................... float48 ceil(float48 x) 
.................... { 
....................    return CEIL_FLOOR(x, 1); 
.................... } 
....................  
.................... // Overloaded function ceil() for data type - Float64 
.................... float64 ceil(float64 x) 
.................... { 
....................    return CEIL_FLOOR(x, 1); 
.................... } 
.................... #endif 
....................  
....................  //////////////////////////////////////////////////////////////////////////// 
.................... //   float fabs(float x) 
.................... //////////////////////////////////////////////////////////////////////////// 
.................... // Description : Computes the absolute value of floating point number x 
.................... // Returns : returns the absolute value of x 
.................... // Date : N/A 
.................... // 
.................... #define fabs abs 
....................  
.................... //////////////////////////////////////////////////////////////////////////// 
.................... //   float fmod(float x) 
.................... //////////////////////////////////////////////////////////////////////////// 
.................... // Description : Computes the floating point remainder of x/y 
.................... // Returns : returns the value of x= i*y, for some integer i such that, if y 
.................... // is non zero, the result has the same isgn of x na dmagnitude less than the 
.................... // magnitude of y. If y is zero then a domain error occurs. 
.................... // Date : N/A 
.................... // 
....................  
.................... float fmod(float32 x,float32 y) 
.................... { 
....................    float32 i; 
....................    if (y!=0.0) 
....................    { 
....................       i=(x/y < 0.0)? ceil(x/y): floor(x/y); 
....................       return(x-(i*y)); 
....................    } 
....................    else 
....................    { 
....................    #ifdef _ERRNO 
....................    { 
....................       errno=EDOM; 
....................    } 
....................    #endif 
....................    } 
.................... } 
.................... //Overloaded function for fmod() for PCD 
.................... // Overloaded function fmod() for data type - Float48 
.................... #if defined(__PCD__) 
.................... float48 fmod(float48 x,float48 y) 
.................... { 
....................    float48 i; 
....................    if (y!=0.0) 
....................    { 
....................       i=(x/y < 0.0)? ceil(x/y): floor(x/y); 
....................       return(x-(i*y)); 
....................    } 
....................    else 
....................    { 
....................    #ifdef _ERRNO 
....................    { 
....................       errno=EDOM; 
....................    } 
....................    #endif 
....................    } 
.................... } 
.................... // Overloaded function fmod() for data type - Float64 
.................... float64 fmod(float64 x,float64 y) 
.................... { 
....................    float64 i; 
....................    if (y!=0.0) 
....................    { 
....................       i=(x/y < 0.0)? ceil(x/y): floor(x/y); 
....................       return(x-(i*y)); 
....................    } 
....................    else 
....................    { 
....................    #ifdef _ERRNO 
....................    { 
....................       errno=EDOM; 
....................    } 
....................    #endif 
....................    } 
.................... } 
.................... #endif 
.................... //////////////////// Exponential and logarithmic functions //////////////////// 
.................... //////////////////////////////////////////////////////////////////////////// 
.................... //   float exp(float x) 
.................... //////////////////////////////////////////////////////////////////////////// 
.................... // Description : returns the value (e^x) 
.................... // Date : N/A 
.................... // 
.................... #define LN2 0.6931471805599453 
.................... #define LN2_INV 1.4426950408889634073 
....................  
.................... float const pe[6] = {0.000207455774, 0.00127100575, 0.00965065093, 
....................                      0.0554965651,  0.240227138,  0.693147172}; 
....................  
....................  
.................... float32 exp(float32 x) 
.................... { 
....................    float32 y, res, r; 
....................    #if defined(__PCD__) 
....................    int8 data1; 
....................    #endif 
....................    signed int8 n; 
....................    int1 s; 
....................    #ifdef _ERRNO 
....................    if(x > 88.722838) 
....................    { 
....................       errno=ERANGE; 
....................       return(0); 
....................    } 
....................    #endif 
....................    n = (signed int16)(x*LN2_INV); 
....................    s = 0; 
....................    y = x; 
....................  
....................    if (x < 0) 
....................    { 
....................       s = 1; 
....................       n = -n; 
....................       y = -y; 
....................    } 
....................  
....................    res = 0.0; 
.................... #if !defined(__PCD__) 
....................    *((unsigned int8 *)(&res)) = n + 0x7F; 
.................... #endif 
....................  
.................... #if defined(__PCD__)  // Takes care of IEEE format for PCD 
....................    data1 = n+0x7F; 
....................    if(bit_test(data1,0)) 
....................    bit_set(*(((unsigned int8 *)(&res)+2)),7); 
....................    rotate_right(&data1,1); 
....................    bit_clear(data1,7); 
....................    *(((unsigned int8 *)(&res)+3)) = data1; 
.................... #endif 
....................  
....................    y = y*LN2_INV - (float32)n; 
....................  
....................    r = pe[0]*y + pe[1]; 
....................    r = r*y + pe[2]; 
....................    r = r*y + pe[3]; 
....................    r = r*y + pe[4]; 
....................    r = r*y + pe[5]; 
....................  
....................    res = res*(1.0 + y*r); 
....................  
....................    if (s) 
....................       res = 1.0/res; 
....................    return(res); 
.................... } 
....................  
....................  
.................... //Overloaded function for exp() for PCD 
.................... // Overloaded function exp() for data type - Float48 
.................... #if defined(__PCD__) 
.................... float48 exp(float48 x) 
.................... { 
....................    float48 y, res, r; 
....................    int8 data1; 
....................    signed int8 n; 
....................    int1 s; 
....................    #ifdef _ERRNO 
....................    if(x > 88.722838) 
....................    { 
....................       errno=ERANGE; 
....................       return(0); 
....................    } 
....................    #endif 
....................    n = (signed int16)(x*LN2_INV); 
....................    s = 0; 
....................    y = x; 
....................  
....................    if (x < 0) 
....................    { 
....................       s = 1; 
....................       n = -n; 
....................       y = -y; 
....................    } 
....................  
....................    res = 0.0; 
....................  
....................    data1 = n+0x7F; 
....................    if(bit_test(data1,0)) 
....................    bit_set(*(((unsigned int8 *)(&res)+4)),7); 
....................    rotate_right(&data1,1); 
....................    bit_clear(data1,7); 
....................    *(((unsigned int8 *)(&res)+5)) = data1; 
....................  
....................    y = y*LN2_INV - (float48)n; 
....................  
....................    r = pe[0]*y + pe[1]; 
....................    r = r*y + pe[2]; 
....................    r = r*y + pe[3]; 
....................    r = r*y + pe[4]; 
....................    r = r*y + pe[5]; 
....................  
....................    res = res*(1.0 + y*r); 
....................  
....................    if (s) 
....................       res = 1.0/res; 
....................    return(res); 
.................... } 
....................  
.................... // Overloaded function exp() for data type - Float64 
.................... float64 const pe_64[12] ={9.30741400474913e-011,-4.28655416283316e-011, 
....................                           8.71486547014137e-009,9.84458531538385e-008, 
....................                           1.32588296983536e-006,1.52489283823016e-005, 
....................                           0.000154037598423921,0.00133335487036216, 
....................                           0.00961812936407326,0.0555041086222122, 
....................                           0.240226506962827,0.693147180559823}; 
....................  
.................... float64 exp(float64 x) 
.................... { 
....................    float64 y, res, r; 
....................    unsigned int16 data1, data2; 
....................    unsigned int16 *p; 
....................    signed int16 n; 
....................    int1 s; 
....................    #ifdef _ERRNO 
....................    if(x > 709.7827128) 
....................    { 
....................       errno=ERANGE; 
....................       return(0); 
....................    } 
....................    #endif 
....................    y = x*LN2_INV; 
....................    n = (signed int16)y; 
....................    s = 0; 
....................    y = x; 
....................  
....................    if (x < 0) 
....................    { 
....................       s = 1; 
....................       n = -n; 
....................       y = -y; 
....................    } 
....................  
....................    res = 0.0; 
....................  
.................... #if !defined(__PCD__) 
....................    *((unsigned int16 *)(&res)) = n + 0x7F; 
.................... #endif 
....................    p= (((unsigned int16 *)(&res))+3); 
....................    data1 = *p; 
....................    data2 = *p;    
....................    data1 = n + 0x3FF; 
....................    data1 = data1 <<4; 
....................    if(bit_test(data2,15)) 
....................    bit_set(data1,15); 
....................    data2 = data2 & 0x000F; 
....................    data1 ^= data2; 
....................  
....................    *(((unsigned int16 *)(&res)+3)) = data1; 
....................  
....................  
....................    y = y*LN2_INV - (float64)n; 
....................  
....................    r = pe_64[0]*y + pe_64[1]; 
....................    r = r*y + pe_64[2]; 
....................    r = r*y + pe_64[3]; 
....................    r = r*y + pe_64[4]; 
....................    r = r*y + pe_64[5]; 
....................    r = r*y + pe_64[6]; 
....................    r = r*y + pe_64[7]; 
....................    r = r*y + pe_64[8]; 
....................    r = r*y + pe_64[9]; 
....................    r = r*y + pe_64[10]; 
....................    r = r*y + pe_64[11]; 
....................     
....................    res = res*(1.0 + y*r); 
....................  
....................    if (s) 
....................       res = 1.0/res; 
....................    return(res); 
.................... } 
.................... #ENDIF 
....................  
....................  
.................... /************************************************************/ 
....................  
.................... float32 const pl[4] = {-1.080310025160955, 1.999999947089217}; 
.................... float32 const ql[4] = {0.091284365719509, -0.873491916557671}; 
....................  
.................... //////////////////////////////////////////////////////////////////////////// 
.................... //   float log(float x) 
.................... //////////////////////////////////////////////////////////////////////////// 
.................... // Description : returns the the natural log of x 
.................... // Date : N/A 
.................... // 
.................... float32 log(float32 x) 
.................... { 
....................    float32 y, res, r, y2; 
....................    #if defined(__PCD__) 
....................    unsigned int8  data1,data2; 
....................    #endif 
....................    signed int8 n; 
....................    #ifdef _ERRNO 
....................    if(x <0) 
....................    { 
....................       errno=EDOM; 
....................    } 
....................    if(x ==0) 
....................    { 
....................       errno=ERANGE; 
....................       return(0); 
....................    } 
....................    #endif 
....................    y = x; 
....................  
....................    if (y != 1.0) 
....................    { 
.................... #if !defined(__PCD__) 
....................     *((unsigned int8 *)(&y)) = 0x7E;  
.................... #endif 
....................  
.................... #if defined(__PCD__) // Takes care of IEEE format 
....................    data2 = *(((unsigned int8 *)(&y))+3); 
....................    *(((unsigned int8 *)(&y))+3) = 0x3F; 
....................    data1 = *(((unsigned int8 *)(&y))+2); 
....................    bit_clear(data1,7); 
....................    *(((unsigned int8 *)(&y))+2) = data1; 
....................    if(bit_test(data2,7)) 
....................      bit_set(*(((unsigned int8 *)(&y))+3),7); 
.................... #endif 
....................  
....................       y = (y - 1.0)/(y + 1.0); 
....................  
....................       y2=y*y; 
....................  
....................       res = pl[0]*y2 + pl[1]; 
....................  
....................       r = ql[0]*y2 + ql[1]; 
....................       r = r*y2 + 1.0; 
....................  
....................       res = y*res/r; 
.................... #if !defined(__PCD__) 
....................       n = *((unsigned int8 *)(&x)) - 0x7E; 
.................... #endif 
.................... #if defined(__PCD__)  
....................     data1 = *(((unsigned int8 *)(&x)+3)); 
....................     rotate_left(&data1,1); 
....................     data2 = *(((unsigned int8 *)(&x)+2)); 
....................     if(bit_test (data2,7)) 
....................       bit_set(data1,0); 
....................     n = data1 - 0x7E; 
.................... #endif 
....................  
....................       if (n<0)  
....................          r = -(float32)-n; 
....................       else 
....................          r = (float32)n; 
....................  
....................       res += r*LN2; 
....................    } 
....................  
....................    else 
....................       res = 0.0; 
....................  
....................    return(res); 
.................... } 
....................  
.................... //Overloaded function for log() for PCD 
.................... // Overloaded function log() for data type - Float48 
.................... #if defined(__PCD__) 
.................... // Overloaded function log() for data type - float64 
.................... float64 const pl_64[4] = {-0.145694052150681, 1.365485300000370, 
....................                           -3.120535668274329, 2.000000000000000}; 
....................  
.................... float64 const ql_64[4] = {0.006047500465908, -0.208298281937234, 
....................                           1.113943039156721, -1.893601167470470}; 
....................  
.................... float48 log(float48 x) 
.................... { 
....................    float48 y, res, r, y2; 
....................    unsigned int8  data1,data2; 
....................    signed int8 n; 
.................... #ifdef _ERRNO 
....................    if(x <0) 
....................    { 
....................       errno=EDOM; 
....................    } 
....................    if(x ==0) 
....................    { 
....................       errno=ERANGE; 
....................       return(0); 
....................    } 
.................... #endif 
....................    y = x; 
....................  
....................    if (y != 1.0) 
....................    { 
....................  
.................... #if !defined(__PCD__) 
....................       *((unsigned int8 *)(&y)) = 0x7E;  
.................... #endif 
....................       data2 = *(((unsigned int8 *)(&y))+5); 
....................       *(((unsigned int8 *)(&y))+5) = 0x3F; 
....................       data1 = *(((unsigned int8 *)(&y))+4); 
....................       bit_clear(data1,7); 
....................       *(((unsigned int8 *)(&y))+4) = data1; 
....................  
....................       if(bit_test(data2,7)) 
....................       bit_set(*(((unsigned int8 *)(&y))+4),7); 
....................       y = (y - 1.0)/(y + 1.0); 
....................  
....................       y2=y*y; 
....................  
....................       res = pl_64[0]*y2 + pl_64[1]; 
....................       res = res*y2 + pl_64[2]; 
....................       res = res*y2 + pl_64[3]; 
....................  
....................       r = ql_64[0]*y2 + ql_64[1]; 
....................       r = r*y2 + ql_64[2]; 
....................       r = r*y2 + ql_64[3]; 
....................       r = r*y2 + 1.0;  
....................       res = y*res/r; 
....................  
....................       data1 = *(((unsigned int8 *)(&x)+5)); 
....................       rotate_left(&data1,1); 
....................       data2 = *(((unsigned int8 *)(&x)+4)); 
....................       if(bit_test (data2,7)) 
....................       bit_set(data1,0); 
....................        
....................       n = data1 - 0x7E; 
....................  
....................       if (n<0) 
....................       r = -(float48)-n; 
....................       else 
....................       r = (float48)n; 
....................  
....................       res += r*LN2; 
....................    } 
....................  
....................    else 
....................    res = 0.0; 
....................  
....................    return(res); 
.................... } 
....................  
.................... float64 log(float64 x) 
.................... { 
....................    float64 y, res, r, y2; 
....................    unsigned int16  data1,data2; 
....................    unsigned int16 *p; 
....................    signed int16 n; 
....................    #ifdef _ERRNO 
....................    if(x <0) 
....................    { 
....................       errno=EDOM; 
....................    } 
....................    if(x ==0) 
....................    { 
....................       errno=ERANGE; 
....................       return(0); 
....................    } 
....................    #endif 
....................    y = x; 
....................  
....................    if (y != 1.0) 
....................    { 
....................    #if !defined(__PCD__) 
....................        *((unsigned int8 *)(&y)) = 0x7E;  
....................    #endif 
....................       p= (((unsigned int16 *)(&y))+3); 
....................       data1 = *p; 
....................       data2 = *p; 
....................       data1 = 0x3FE; 
....................       data1 = data1 <<4; 
....................       if(bit_test (data2,15)) 
....................          bit_set(data1,15); 
....................       data2 = data2 & 0x000F; 
....................       data1 ^=data2; 
....................  
....................       *p = data1; 
....................  
....................       y = (y - 1.0)/(y + 1.0); 
....................  
....................       y2=y*y; 
....................  
....................       res = pl_64[0]*y2 + pl_64[1]; 
....................       res = res*y2 + pl_64[2]; 
....................       res = res*y2 + pl_64[3]; 
....................  
....................       r = ql_64[0]*y2 + ql_64[1]; 
....................       r = r*y2 + ql_64[2]; 
....................       r = r*y2 + ql_64[3]; 
....................       r = r*y2 + 1.0; 
....................  
....................       res = y*res/r; 
....................   
....................       p= (((unsigned int16 *)(&x))+3); 
....................       data1 = *p; 
....................       bit_clear(data1,15); 
....................       data1 = data1 >>4;     
....................       n = data1 - 0x3FE; 
....................  
....................  
....................       if (n<0) 
....................          r = -(float64)-n; 
....................       else 
....................          r = (float64)n; 
....................  
....................       res += r*LN2; 
....................    } 
....................  
....................    else 
....................       res = 0.0; 
....................  
....................    return(res); 
.................... } 
.................... #endif 
....................  
....................  
.................... #define LN10 2.3025850929940456 
.................... #define LN10_INV 0.4342944819032518276 
....................  
.................... //////////////////////////////////////////////////////////////////////////// 
.................... //   float log10(float x) 
.................... //////////////////////////////////////////////////////////////////////////// 
.................... // Description : returns the the log base 10 of x 
.................... // Date : N/A 
.................... // 
.................... float32 log10(float32 x) 
.................... { 
....................    float32 r; 
....................  
....................    r = log(x); 
....................    r = r*LN10_INV; 
....................    return(r); 
.................... } 
....................  
.................... //Overloaded functions for log10() for PCD 
.................... // Overloaded function log10() for data type - Float48 
.................... #if defined(__PCD__) 
.................... float48 log10(float48 x) 
.................... { 
....................    float48 r; 
....................  
....................    r = log(x); 
....................    r = r*LN10_INV; 
....................    return(r); 
.................... } 
....................  
.................... // Overloaded function log10() for data type - Float64 
.................... float64 log10(float64 x) 
.................... { 
....................    float64 r; 
....................  
....................    r = log(x); 
....................    r = r*LN10_INV; 
....................    return(r); 
.................... } 
.................... #endif 
.................... //////////////////////////////////////////////////////////////////////////// 
.................... //   float modf(float x) 
.................... //////////////////////////////////////////////////////////////////////////// 
.................... // Description :breaks the argument value int integral and fractional parts, 
.................... // ach of which have the same sign as the argument.  It stores the integral part 
.................... // as a float in the object pointed to by the iptr 
.................... // Returns : returns the signed fractional part of value. 
.................... // Date : N/A 
.................... // 
....................  
.................... float32 modf(float32 value,float32 *iptr) 
.................... { 
....................    *iptr=(value < 0.0)? ceil(value): floor(value); 
....................    return(value - *iptr); 
.................... } 
.................... //Overloaded functions for modf() for PCD 
.................... // Overloaded function modf() for data type - Float48 
.................... #if defined(__PCD__) 
.................... float48 modf(float48 value,float48 *iptr) 
.................... { 
....................    *iptr=(value < 0.0)? ceil(value): floor(value); 
....................    return(value - *iptr); 
.................... } 
.................... // Overloaded function modf() for data type - Float64 
.................... float64 modf(float64 value,float64 *iptr) 
.................... { 
....................    *iptr=(value < 0.0)? ceil(value): floor(value); 
....................    return(value - *iptr); 
.................... } 
.................... #endif 
....................  
.................... //////////////////////////////////////////////////////////////////////////// 
.................... //   float pwr(float x,float y) 
.................... //////////////////////////////////////////////////////////////////////////// 
.................... // Description : returns the value (x^y) 
.................... // Date : N/A 
.................... // Note : 0 is returned when the function will generate an imaginary number 
.................... // 
.................... float32 pwr(float32 x,float32 y) 
.................... { 
....................    if(0 > x && fmod(y, 1) == 0) { 
....................       if(fmod(y, 2) == 0) { 
....................          return (exp(log(-x) * y)); 
....................       } else { 
....................          return (-exp(log(-x) * y)); 
....................       } 
....................    } else if(0 > x && fmod(y, 1) != 0) { 
....................       return 0; 
....................    } else { 
....................       if(x != 0 || 0 >= y) { 
....................          return (exp(log(x) * y)); 
....................       } 
....................    } 
.................... } 
.................... //Overloaded functions for pwr() for PCD 
.................... // Overloaded function pwr() for data type - Float48 
.................... #if defined(__PCD__) 
.................... float48 pwr(float48 x,float48 y) 
.................... { 
....................    if(0 > x && fmod(y, 1) == 0) { 
....................       if(fmod(y, 2) == 0) { 
....................          return (exp(log(-x) * y)); 
....................       } else { 
....................          return (-exp(log(-x) * y)); 
....................       } 
....................    } else if(0 > x && fmod(y, 1) != 0) { 
....................       return 0; 
....................    } else { 
....................       if(x != 0 || 0 >= y) { 
....................          return (exp(log(x) * y)); 
....................       } 
....................    } 
.................... } 
.................... // Overloaded function pwr() for data type - Float64 
.................... float64 pwr(float64 x,float64 y) 
.................... { 
....................    if(0 > x && fmod(y, 1) == 0) { 
....................       if(fmod(y, 2) == 0) { 
....................          return (exp(log(-x) * y)); 
....................       } else { 
....................          return (-exp(log(-x) * y)); 
....................       } 
....................    } else if(0 > x && fmod(y, 1) != 0) { 
....................       return 0; 
....................    } else { 
....................       if(x != 0 || 0 >= y) { 
....................          return (exp(log(x) * y)); 
....................       } 
....................    } 
.................... } 
.................... #endif 
....................  
.................... //////////////////// Power functions //////////////////// 
....................  
.................... //////////////////////////////////////////////////////////////////////////// 
.................... //   float pow(float x,float y) 
.................... //////////////////////////////////////////////////////////////////////////// 
.................... // Description : returns the value (x^y) 
.................... // Date : N/A 
.................... // Note : 0 is returned when the function will generate an imaginary number 
.................... // 
.................... float32 pow(float32 x,float32 y) 
.................... { 
....................    if(0 > x && fmod(y, 1) == 0) { 
....................       if(fmod(y, 2) == 0) { 
....................          return (exp(log(-x) * y)); 
....................       } else { 
....................          return (-exp(log(-x) * y)); 
....................       } 
....................    } else if(0 > x && fmod(y, 1) != 0) { 
....................       return 0; 
....................    } else { 
....................       if(x != 0 || 0 >= y) { 
....................          return (exp(log(x) * y)); 
....................       } 
....................    } 
.................... } 
.................... //Overloaded functions for pow() for PCD 
.................... // Overloaded function for pow() data type - Float48 
.................... #if defined(__PCD__) 
.................... float48 pow(float48 x,float48 y) 
.................... { 
....................    if(0 > x && fmod(y, 1) == 0) { 
....................       if(fmod(y, 2) == 0) { 
....................          return (exp(log(-x) * y)); 
....................       } else { 
....................          return (-exp(log(-x) * y)); 
....................       } 
....................    } else if(0 > x && fmod(y, 1) != 0) { 
....................       return 0; 
....................    } else { 
....................       if(x != 0 || 0 >= y) { 
....................          return (exp(log(x) * y)); 
....................       } 
....................    } 
.................... } 
....................  
.................... // Overloaded function pow() for data type - Float64 
.................... float64 pow(float64 x,float64 y) 
.................... { 
....................    if(0 > x && fmod(y, 1) == 0) { 
....................       if(fmod(y, 2) == 0) { 
....................          return (exp(log(-x) * y)); 
....................       } else { 
....................          return (-exp(log(-x) * y)); 
....................       } 
....................    } else if(0 > x && fmod(y, 1) != 0) { 
....................       return 0; 
....................    } else { 
....................       if(x != 0 || 0 >= y) { 
....................          return (exp(log(x) * y)); 
....................       } 
....................    } 
.................... } 
.................... #endif 
....................  
.................... //////////////////////////////////////////////////////////////////////////// 
.................... //   float sqrt(float x) 
.................... //////////////////////////////////////////////////////////////////////////// 
.................... // Description : returns the square root of x 
.................... // Date : N/A 
.................... // 
.................... float32 sqrt(float32 x) 
.................... { 
....................    float32 y, res; 
....................    #if defined(__PCD__) 
....................    unsigned int16 data1,data2; 
....................    #endif 
....................    unsigned int8 *p; 
....................  
....................    #ifdef _ERRNO 
....................    if(x < 0) 
....................    { 
....................       errno=EDOM; 
....................    } 
....................    #endif 
....................  
....................    if( x<=0.0) 
....................       return(0.0); 
....................  
....................    y=x; 
....................     
....................    #if !defined(__PCD__) 
....................     p=&y; 
....................    (*p)=(unsigned int8)((((unsigned int16)(*p)) + 127) >> 1); 
....................    #endif 
....................     
....................    #if defined(__PCD__) 
....................     p = (((unsigned int8 *)(&y))+3); 
....................     data1 = *(((unsigned int8 *)(&y))+3); 
....................     data2 = *(((unsigned int8 *)(&y))+2); 
....................     rotate_left(&data1,1);     
....................     if(bit_test(data2,7))     
....................        bit_set(data1,0);     
....................     data1 = ((data1+127) >>1); 
....................     bit_clear(data2,7); 
....................     if(bit_test(data1,0)) 
....................        bit_set(data2,7); 
....................     data1 = data1 >>1; 
....................     *(((unsigned int8 *)(&y))+3) = data1; 
....................     *(((unsigned int8 *)(&y))+2) = data2; 
....................      
....................   #endif 
....................  
....................    do { 
....................       res=y; 
....................       y+=(x/y); 
....................  
....................       #if !defined(__PCD__) 
....................      (*p)--; 
....................    #endif 
....................     
....................    #if defined(__PCD__) 
....................     data1 = *(((unsigned int8 *)(&y))+3); 
....................     data2 = *(((unsigned int8 *)(&y))+2); 
....................     rotate_left(&data1,1); 
....................     if(bit_test(data2,7)) 
....................        bit_set(data1,0);     
....................     data1--; 
....................     bit_clear(data2,7); 
....................     if(bit_test(data1,0)) 
....................        bit_set(data2,7); 
....................     data1 = data1 >>1; 
....................     *(((unsigned int8 *)(&y))+3) = data1; 
....................     *(((unsigned int8 *)(&y))+2) = data2; 
....................      
....................   #endif 
....................    } while(res != y); 
....................  
....................    return(res); 
.................... } 
.................... //Overloaded functions for sqrt() for PCD 
.................... // Overloaded function sqrt() for data type - Float48 
.................... #if defined(__PCD__) 
.................... float48 sqrt(float48 x) 
.................... { 
....................    float48 y, res; 
....................    unsigned int16 data1,data2; 
....................    unsigned int8 *p; 
....................  
....................    #ifdef _ERRNO 
....................    if(x < 0) 
....................    { 
....................       errno=EDOM; 
....................    } 
....................    #endif 
....................  
....................    if( x<=0.0) 
....................       return(0.0); 
....................  
....................    y=x; 
....................     
....................    #if !defined(__PCD__) 
....................     p=&y; 
....................    (*p)=(unsigned int8)((((unsigned int16)(*p)) + 127) >> 1); 
....................    #endif 
....................     
....................    #if defined(__PCD__) 
....................     p = (((unsigned int8 *)(&y))+5); 
....................     data1 = *(((unsigned int8 *)(&y))+5); 
....................     data2 = *(((unsigned int8 *)(&y))+4); 
....................     rotate_left(&data1,1); 
....................     if(bit_test(data2,7)) 
....................        bit_set(data1,0);     
....................     data1 = ((data1+127) >>1); 
....................     bit_clear(data2,7); 
....................     if(bit_test(data1,0)) 
....................        bit_set(data2,7); 
....................     data1 = data1 >>1; 
....................     *(((unsigned int8 *)(&y))+5) = data1; 
....................     *(((unsigned int8 *)(&y))+4) = data2; 
....................      
....................   #endif 
....................  
....................    do { 
....................       res=y; 
....................       y+=(x/y); 
....................  
....................       #if !defined(__PCD__) 
....................      (*p)--; 
....................    #endif 
....................     
....................     data1 = *(((unsigned int8 *)(&y))+5); 
....................     data2 = *(((unsigned int8 *)(&y))+4); 
....................     rotate_left(&data1,1); 
....................     if(bit_test(data2,7)) 
....................        bit_set(data1,0);     
....................     data1--; 
....................     bit_clear(data2,7); 
....................     if(bit_test(data1,0)) 
....................        bit_set(data2,7); 
....................     data1 = data1 >>1; 
....................     *(((unsigned int8 *)(&y))+5) = data1; 
....................     *(((unsigned int8 *)(&y))+4) = data2; 
....................      
....................    } while(res != y); 
....................  
....................    return(res); 
.................... } 
....................  
.................... // Overloaded function sqrt() for data type - Float64 
.................... float64 sqrt(float64 x) 
.................... { 
....................    float64 y, res; 
....................    unsigned int16 *p; 
....................    unsigned int16 temp1,temp2; 
....................  
....................    #ifdef _ERRNO 
....................    if(x < 0) 
....................    { 
....................       errno=EDOM; 
....................    } 
....................    #endif 
....................  
....................    if( x<=0.0) 
....................       return(0.0); 
....................  
....................    y=x; 
....................    p= (((unsigned int16 *)(&y))+3); 
....................    temp1 = *p; 
....................    temp2 = *p; 
....................    bit_clear(temp1,15); 
....................    temp1 = (temp1>>4)+1023; 
....................    temp1 = temp1 >> 1; 
....................    temp1 = (temp1<<4) & 0xFFF0; 
....................    if(bit_test(temp2,15)) 
....................       bit_set(temp1,15); 
....................    temp2 = temp2 & 0x000F; 
....................    temp1 ^= temp2; 
....................     
....................    (*p) = temp1; 
....................     
....................    do { 
....................       res=y; 
....................       y+=(x/y); 
....................      temp1 = *p; 
....................      temp2 = *p; 
....................      bit_clear(temp1,15); 
....................      temp1 = (temp1>>4); 
....................      temp1--; 
....................      temp1 = (temp1<<4) & 0xFFF0; 
....................      if(bit_test(temp2,15)) 
....................         bit_set(temp1,15); 
....................      temp2 = temp2 & 0x000F; 
....................      temp1 ^= temp2; 
....................      (*p) = temp1; 
....................  
....................    } while(res != y); 
....................  
....................    return(res); 
.................... } 
.................... #endif 
....................  
.................... ////////////////////////////// Trig Functions ////////////////////////////// 
.................... #ifdef PI_DIV_BY_TWO_INV 
.................... #undef PI_DIV_BY_TWO_INV 
.................... #endif 
.................... #define PI_DIV_BY_TWO_INV 0.63661977236758134 
.................... #ifdef PI_DIV_BY_TWO 
.................... #undef PI_DIV_BY_TWO 
.................... #endif 
.................... #define PI_DIV_BY_TWO   1.5707963267948966 
.................... #ifdef TWOBYPI 
.................... #undef TWOBYPI 
.................... #endif 
.................... #define TWOBYPI          0.6366197723675813 
....................  
.................... //////////////////////////////////////////////////////////////////////////// 
.................... //   float cos(float x) 
.................... //////////////////////////////////////////////////////////////////////////// 
.................... // Description : returns the cosine value of the angle x, which is in radian 
.................... // Date : 9/20/2001 
.................... // 
.................... float32 cos(float32 x) 
.................... { 
....................    float32 y, t, t2 = 1.0; 
....................    unsigned int8 quad, i; 
....................    float32 frac; 
....................    float32 p[5] = {                    //by the series definition for cosine 
....................       -0.49999999456337096,            // sum ( ( (-1)^n * x^2n )/(2n)! ) 
....................        0.04166663896921267, 
....................       -0.00138883894522527, 
....................        0.00002476138231734, 
....................       -0.00000026070414770 
....................       //-0.00000000001147, 
....................       // 0.00000000000005 
....................    }; 
....................  
....................    if (x < 0) x = -x;                  // absolute value of input 
....................  
....................    quad = (unsigned int8)(x * PI_DIV_BY_TWO_INV);    // quadrant 
....................    frac = (x * PI_DIV_BY_TWO_INV) - quad;  // fractional part of input 
....................    quad = quad % 4;                    // quadrant (0 to 3) 
....................  
....................    if (quad == 0 || quad == 2) 
....................       t = frac * PI_DIV_BY_TWO; 
....................    else if (quad == 1) 
....................       t = (1-frac) * PI_DIV_BY_TWO; 
....................    else // should be 3 
....................       t = (frac-1) * PI_DIV_BY_TWO; 
....................  
....................    y = 1.0; 
....................    t = t * t; 
....................    for (i = 0; i <= 4; i++) 
....................    { 
....................       t2 = t2 * t; 
....................       y = y + p[i] * t2; 
....................    } 
....................  
....................    if (quad == 2 || quad == 1) 
....................       y = -y;  // correct sign 
....................  
....................    return (y); 
.................... } 
....................  
....................  
.................... //Overloaded functions for cos() for PCD 
.................... // Overloaded function cos() for data type - Float48 
.................... #if defined(__PCD__) 
.................... float48 cos(float48 x) 
.................... { 
....................    float48 y, t, t2 = 1.0; 
....................    unsigned int8 quad, i; 
....................    float48 frac; 
....................    float48 p[6] = {                    //by the series definition for cosine 
....................       -0.5,                            // sum ( ( (-1)^n * x^2n )/(2n)! ) 
....................        0.04166666666667, 
....................       -0.00138888888889, 
....................        0.00002480158730, 
....................       -0.00000027557319, 
....................        0.00000000208767 
....................    }; 
....................  
....................    if (x < 0) x = -x;                  // absolute value of input 
....................  
....................    quad = (unsigned int8)(x * PI_DIV_BY_TWO_INV);    // quadrant 
....................    frac = (x * PI_DIV_BY_TWO_INV) - quad;  // fractional part of input 
....................    quad = quad % 4;                    // quadrant (0 to 3) 
....................  
....................    if (quad == 0 || quad == 2) 
....................       t = frac * PI_DIV_BY_TWO; 
....................    else if (quad == 1) 
....................       t = (1-frac) * PI_DIV_BY_TWO; 
....................    else // should be 3 
....................       t = (frac-1) * PI_DIV_BY_TWO; 
....................  
....................    y = 0.999999999781; 
....................    t = t * t; 
....................    for (i = 0; i <= 5; i++) 
....................    { 
....................       t2 = t2 * t; 
....................       y = y + p[i] * t2; 
....................    } 
....................  
....................    if (quad == 2 || quad == 1) 
....................       y = -y;  // correct sign 
....................  
....................    return (y); 
.................... } 
....................  
.................... // Overloaded function cos() for data type - Float64 
.................... float64 cos(float64 x) 
.................... { 
....................    float64 y, t, t2 = 1.0; 
....................    unsigned int8 quad, i; 
....................    float64 frac; 
....................    float64 p_64[9] = {               //by the series definition for cosine 
....................      -0.49999999999998740,           // sum ( ( (-1)^n * x^2n )/(2n)! )              
....................       0.04166666666656518, 
....................      -0.00138888888851691, 
....................       0.00002480158658490, 
....................      -0.00000027557239796, 
....................       0.00000000208715031, 
....................      -0.00000000001126577, 
....................       0.00000000000000427, 
....................       0.00000000000000372}; 
....................  
....................    if (x < 0) x = -x;                  // absolute value of input 
....................  
....................    quad = (unsigned int8)(x * PI_DIV_BY_TWO_INV);    // quadrant 
....................    frac = (x * PI_DIV_BY_TWO_INV) - quad;  // fractional part of input 
....................    quad = quad % 4;                    // quadrant (0 to 3) 
....................  
....................    if (quad == 0 || quad == 2) 
....................       t = frac * PI_DIV_BY_TWO; 
....................    else if (quad == 1) 
....................       t = (1-frac) * PI_DIV_BY_TWO; 
....................    else // should be 3 
....................       t = (frac-1) * PI_DIV_BY_TWO; 
....................  
....................    y = 1.0; 
....................    t = t * t; 
....................    for (i = 0; i <= 8; i++) 
....................    { 
....................       t2 = t2 * t; 
....................       y = y + p_64[i] * t2; 
....................    } 
....................  
....................    if (quad == 2 || quad == 1) 
....................       y = -y;  // correct sign 
....................  
....................    return (y); 
.................... } 
....................  
.................... #endif 
....................  
.................... //////////////////////////////////////////////////////////////////////////// 
.................... //   float sin(float x) 
.................... //////////////////////////////////////////////////////////////////////////// 
.................... // Description : returns the sine value of the angle x, which is in radian 
.................... // Date : 9/20/2001 
.................... // 
.................... float32 sin(float32 x) 
.................... { 
....................    return cos(x - PI_DIV_BY_TWO); 
.................... } 
....................  
.................... //Overloaded functions for sin() for PCD 
.................... // Overloaded function sin() for data type - Float48 
.................... #if defined(__PCD__) 
.................... float48 sin(float48 x) 
.................... { 
....................    return cos(x - PI_DIV_BY_TWO); 
.................... } 
....................  
.................... // Overloaded function sin() for data type - Float48 
.................... float64 sin(float64 x) 
.................... { 
....................    return cos(x - PI_DIV_BY_TWO); 
.................... } 
.................... #endif 
....................  
.................... //////////////////////////////////////////////////////////////////////////// 
.................... //   float tan(float x) 
.................... //////////////////////////////////////////////////////////////////////////// 
.................... // Description : returns the tangent value of the angle x, which is in radian 
.................... // Date : 9/20/2001 
.................... // 
.................... float32 tan(float32 x) 
.................... { 
....................    float32 c, s; 
....................  
....................    c = cos(x); 
....................    if (c == 0.0) 
....................       return (1.0e+36); 
....................  
....................    s = sin(x); 
....................    return(s/c); 
.................... } 
.................... //Overloaded functions for tan() for PCD 
.................... // Overloaded function tan() for data type - Float48 
.................... #if defined(__PCD__) 
.................... float48 tan(float48 x) 
.................... { 
....................    float48 c, s; 
....................  
....................    c = cos(x); 
....................    if (c == 0.0) 
....................       return (1.0e+36); 
....................  
....................    s = sin(x); 
....................    return(s/c); 
.................... } 
....................  
.................... // Overloaded function tan() for data type - Float48 
.................... float64 tan(float64 x) 
.................... { 
....................    float64 c, s; 
....................  
....................    c = cos(x); 
....................    if (c == 0.0) 
....................       return (1.0e+36); 
....................  
....................    s = sin(x); 
....................    return(s/c); 
.................... } 
.................... #endif 
....................  
.................... float32 const pas[3] = {0.49559947, -4.6145309, 5.6036290}; 
.................... float32 const qas[3] = {1.0000000,  -5.5484666, 5.6036290}; 
....................  
.................... float32 ASIN_COS(float32 x, unsigned int8 n) 
.................... { 
....................    float32 y, res, r, y2; 
....................    int1 s; 
....................    #ifdef _ERRNO 
....................    if(x <-1 || x > 1) 
....................    { 
....................       errno=EDOM; 
....................    } 
....................    #endif 
....................    s = 0; 
....................    y = x; 
....................  
....................    if (x < 0) 
....................    { 
....................       s = 1; 
....................       y = -y; 
....................    } 
....................  
....................    if (y > 0.5) 
....................    { 
....................       y = sqrt((1.0 - y)*0.5); 
....................       n += 2; 
....................    } 
....................  
....................    y2=y*y; 
....................  
....................    res = pas[0]*y2 + pas[1]; 
....................    res = res*y2 + pas[2]; 
....................  
....................    r = qas[0]*y2 + qas[1]; 
....................    r = r*y2 + qas[2]; 
....................  
....................    res = y*res/r; 
....................  
....................    if (n & 2)     // |x| > 0.5 
....................       res = PI_DIV_BY_TWO - 2.0*res; 
....................    if (s) 
....................       res = -res; 
....................    if (n & 1)           // take arccos 
....................       res = PI_DIV_BY_TWO - res; 
....................  
....................    return(res); 
.................... } 
....................  
....................  
.................... //Overloaded functions for ASIN_COS() for PCD 
.................... // Overloaded function ASIN_COS() for data type - Float48 
.................... #if defined(__PCD__) 
.................... float48 ASIN_COS(float48 x, unsigned int8 n) 
.................... { 
....................    float48 y, res, r, y2; 
....................    int1 s; 
....................    #ifdef _ERRNO 
....................    if(x <-1 || x > 1) 
....................    { 
....................       errno=EDOM; 
....................    } 
....................    #endif 
....................    s = 0; 
....................    y = x; 
....................  
....................    if (x < 0) 
....................    { 
....................       s = 1; 
....................       y = -y; 
....................    } 
....................  
....................    if (y > 0.5) 
....................    { 
....................       y = sqrt((1.0 - y)*0.5); 
....................       n += 2; 
....................    } 
....................  
....................    y2=y*y; 
....................  
....................    res = pas[0]*y2 + pas[1]; 
....................    res = res*y2 + pas[2]; 
....................  
....................    r = qas[0]*y2 + qas[1]; 
....................    r = r*y2 + qas[2]; 
....................  
....................    res = y*res/r; 
....................  
....................    if (n & 2)     // |x| > 0.5 
....................       res = PI_DIV_BY_TWO - 2.0*res; 
....................    if (s) 
....................       res = -res; 
....................    if (n & 1)           // take arccos 
....................       res = PI_DIV_BY_TWO - res; 
....................  
....................    return(res); 
.................... } 
....................  
.................... // Overloaded function ASIN_COS() for data type - Float64 
.................... double pas_64[5]={1.000000000000000,-2.069938587724477,1.421444580548907, 
....................                  -0.360690137621842,0.024929451660228}; 
....................  
.................... double qas_64[5]={-2.236605254391134,1.719212122946451,-0.524122954476133, 
....................                    0.052808872045749,-0.000662536036570}; 
....................                     
.................... float64 ASIN_COS(float64 x, unsigned int8 n) 
.................... { 
....................    float64 y, res, r, y2; 
....................    int1 s; 
....................    #ifdef _ERRNO 
....................    if(x <-1 || x > 1) 
....................    { 
....................       errno=EDOM; 
....................    } 
....................    #endif 
....................    s = 0; 
....................    y = x; 
....................  
....................    if (x < 0) 
....................    { 
....................       s = 1; 
....................       y = -y; 
....................    } 
....................  
....................    if (y > 0.5) 
....................    { 
....................       y = sqrt((1.0 - y)*0.5); 
....................       n += 2; 
....................    } 
....................  
....................    y2=y*y; 
....................  
....................    res = pas_64[4]*y2 + pas_64[3]; 
....................    res = res*y2 + pas_64[2]; 
....................    res = res*y2 + pas_64[1]; 
....................    res = res*y2 + pas_64[0]; 
....................  
....................    r = qas_64[4]*y2 + qas_64[3]; 
....................    r = r*y2 + qas_64[2]; 
....................    r = r*y2 + qas_64[1]; 
....................    r = r*y2 + qas_64[0]; 
....................    r = r*y2 + 1.0; 
....................  
....................    res = y*res/r; 
....................  
....................    if (n & 2)     // |x| > 0.5 
....................       res = PI_DIV_BY_TWO - 2.0*res; 
....................    if (s) 
....................       res = -res; 
....................    if (n & 1)           // take arccos 
....................       res = PI_DIV_BY_TWO - res; 
....................  
....................    return(res); 
.................... } 
.................... #endif 
....................  
.................... //////////////////////////////////////////////////////////////////////////// 
.................... //   float asin(float x) 
.................... //////////////////////////////////////////////////////////////////////////// 
.................... // Description : returns the arcsine value of the value x. 
.................... // Date : N/A 
.................... // 
.................... float32 asin(float32 x) 
.................... { 
....................    float32 r; 
....................  
....................    r = ASIN_COS(x, 0); 
....................    return(r); 
.................... } 
.................... //Overloaded functions for asin() for PCD 
.................... // Overloaded function asin() for data type - Float48 
.................... #if defined(__PCD__) 
.................... float48 asin(float48 x) 
.................... { 
....................    float48 r; 
....................  
....................    r = ASIN_COS(x, 0); 
....................    return(r); 
.................... } 
....................  
.................... // Overloaded function asin() for data type - Float64 
.................... float64 asin(float64 x) 
.................... { 
....................    float64 r; 
....................  
....................    r = ASIN_COS(x, 0); 
....................    return(r); 
.................... } 
.................... #endif 
....................  
.................... //////////////////////////////////////////////////////////////////////////// 
.................... //   float acos(float x) 
.................... //////////////////////////////////////////////////////////////////////////// 
.................... // Description : returns the arccosine value of the value x. 
.................... // Date : N/A 
.................... // 
.................... float32 acos(float32 x) 
.................... { 
....................    float32 r; 
....................  
....................    r = ASIN_COS(x, 1); 
....................    return(r); 
.................... } 
.................... //Overloaded functions for acos() for PCD 
.................... // Overloaded function acos() for data type - Float48 
.................... #if defined(__PCD__) 
.................... float48 acos(float48 x) 
.................... { 
....................    float48 r; 
....................  
....................    r = ASIN_COS(x, 1); 
....................    return(r); 
.................... } 
....................  
.................... // Overloaded function acos() for data type - Float64 
.................... float64 acos(float64 x) 
.................... { 
....................    float64 r; 
....................  
....................    r = ASIN_COS(x, 1); 
....................    return(r); 
.................... } 
.................... #endif 
....................  
.................... float32 const pat[4] = {0.17630401, 5.6710795, 22.376096, 19.818457}; 
.................... float32 const qat[4] = {1.0000000,  11.368190, 28.982246, 19.818457}; 
....................  
.................... //////////////////////////////////////////////////////////////////////////// 
.................... //   float atan(float x) 
.................... //////////////////////////////////////////////////////////////////////////// 
.................... // Description : returns the arctangent value of the value x. 
.................... // Date : N/A 
.................... // 
.................... float32 atan(float32 x) 
.................... { 
....................    float32 y, res, r; 
....................    int1 s, flag; 
....................  
....................    s = 0; 
....................    flag = 0; 
....................    y = x; 
....................  
....................    if (x < 0) 
....................    { 
....................       s = 1; 
....................       y = -y; 
....................    } 
....................  
....................    if (y > 1.0) 
....................    { 
....................       y = 1.0/y; 
....................       flag = 1; 
....................    } 
....................  
....................    res = pat[0]*y*y + pat[1]; 
....................    res = res*y*y + pat[2]; 
....................    res = res*y*y + pat[3]; 
....................  
....................    r = qat[0]*y*y + qat[1]; 
....................    r = r*y*y + qat[2]; 
....................    r = r*y*y + qat[3]; 
....................  
....................    res = y*res/r; 
....................  
....................  
....................    if (flag)                              // for |x| > 1 
....................       res = PI_DIV_BY_TWO - res; 
....................    if (s) 
....................       res = -res; 
....................  
....................    return(res); 
.................... } 
.................... //Overloaded functions for atan() for PCD 
.................... // Overloaded function atan() for data type - Float48 
.................... #if defined(__PCD__) 
.................... float48 atan(float48 x) 
.................... { 
....................    float48 y, res, r; 
....................    int1 s, flag; 
....................  
....................    s = 0; 
....................    flag = 0; 
....................    y = x; 
....................  
....................    if (x < 0) 
....................    { 
....................       s = 1; 
....................       y = -y; 
....................    } 
....................  
....................    if (y > 1.0) 
....................    { 
....................       y = 1.0/y; 
....................       flag = 1; 
....................    } 
....................  
....................    res = pat[0]*y*y + pat[1]; 
....................    res = res*y*y + pat[2]; 
....................    res = res*y*y + pat[3]; 
....................  
....................    r = qat[0]*y*y + qat[1]; 
....................    r = r*y*y + qat[2]; 
....................    r = r*y*y + qat[3]; 
....................  
....................    res = y*res/r; 
....................  
....................  
....................    if (flag)                              // for |x| > 1 
....................       res = PI_DIV_BY_TWO - res; 
....................    if (s) 
....................       res = -res; 
....................  
....................    return(res); 
.................... } 
....................  
.................... float64 pat_64[6]={0.999999999999999,2.249923645595566,1.771541617806449, 
....................                    0.579678874003185,0.072162702162882,0.002281100141660}; 
....................  
.................... float64 qat_64[6]={2.583256978928510,2.432627277466967,1.016760379885393, 
....................                    0.182482977188688,0.011155377971690,0.000100013019160}; 
.................... // Overloaded function atan() for data type - Float64 
.................... float64 atan(float64 x) 
.................... { 
....................    float64 y,y2, res, r; 
....................    int1 s, flag; 
....................  
....................    s = 0; 
....................    flag = 0; 
....................    y = x; 
....................  
....................    if (x < 0) 
....................    { 
....................       s = 1; 
....................       y = -y; 
....................    } 
....................  
....................    if (y > 1.0) 
....................    { 
....................       y = 1.0/y; 
....................       flag = 1; 
....................    } 
....................    y2 = y*y; 
....................    res = pat_64[5]*y2 + pat_64[4]; 
....................    res = res*y2 + pat_64[3]; 
....................    res = res*y2 + pat_64[2]; 
....................    res = res*y2 + pat_64[1]; 
....................    res = res*y2 + pat_64[0]; 
....................  
....................    r = qat_64[5]*y2 + qat_64[4]; 
....................    r = r*y2 + qat_64[3]; 
....................    r = r*y2 + qat_64[2]; 
....................    r = r*y2 + qat_64[1]; 
....................    r = r*y2 + qat_64[0]; 
....................    r = r*y2 + 1.0; 
....................  
....................    res = y*res/r; 
....................  
....................  
....................    if (flag)                              // for |x| > 1 
....................       res = PI_DIV_BY_TWO - res; 
....................    if (s) 
....................       res = -res; 
....................  
....................    return(res); 
.................... } 
.................... #endif 
....................  
.................... ///////////////////////////////////////////////////////////////////////////// 
.................... //   float atan2(float y, float x) 
.................... ///////////////////////////////////////////////////////////////////////////// 
.................... // Description :computes the principal value of arc tangent of y/x, using the 
.................... // signs of both the arguments to determine the quadrant of the return value 
.................... // Returns : returns the arc tangent of y/x. 
.................... // Date : N/A 
.................... // 
....................  
.................... float32 atan2(float32 y,float32 x) 
.................... { 
....................    float32 z; 
....................    int1 sign; 
....................    unsigned int8 quad; 
....................    sign=0; 
....................    quad=0; //quadrant 
....................    quad=((y<=0.0)?((x<=0.0)?3:4):((x<0.0)?2:1)); 
....................    if(y<0.0) 
....................    { 
....................       sign=1; 
....................       y=-y; 
....................    } 
....................    if(x<0.0) 
....................    { 
....................       x=-x; 
....................    } 
....................    if (x==0.0) 
....................    { 
....................       if(y==0.0) 
....................       { 
....................       #ifdef _ERRNO 
....................       { 
....................          errno=EDOM; 
....................       } 
....................       #endif 
....................       } 
....................       else 
....................       { 
....................          if(sign) 
....................          { 
....................          return (-(PI_DIV_BY_TWO)); 
....................          } 
....................          else 
....................          { 
....................          return (PI_DIV_BY_TWO); 
....................          } 
....................       } 
....................    } 
....................    else 
....................    { 
....................       z=y/x; 
....................       switch(quad) 
....................       { 
....................          case 1: 
....................          { 
....................             return atan(z); 
....................             break; 
....................          } 
....................          case 2: 
....................          { 
.................... //            return (atan(z)+PI_DIV_BY_TWO);  //2L3122 
....................             return (PI-atan(z)); 
....................             break; 
....................          } 
....................          case 3: 
....................          { 
....................             return (atan(z)-PI); 
....................             break; 
....................          } 
....................          case 4: 
....................          { 
....................             return (-atan(z)); 
....................             break; 
....................          } 
....................       } 
....................    } 
.................... } 
....................  
.................... //Overloaded functions for atan2() for PCD 
.................... // Overloaded function atan2() for data type - Float48 
.................... #if defined(__PCD__) 
.................... float48 atan2(float48 y,float48 x) 
.................... { 
....................    float48 z; 
....................    int1 sign; 
....................    unsigned int8 quad; 
....................    sign=0; 
....................    quad=0; //quadrant 
....................    quad=((y<=0.0)?((x<=0.0)?3:4):((x<0.0)?2:1)); 
....................    if(y<0.0) 
....................    { 
....................       sign=1; 
....................       y=-y; 
....................    } 
....................    if(x<0.0) 
....................    { 
....................       x=-x; 
....................    } 
....................    if (x==0.0) 
....................    { 
....................       if(y==0.0) 
....................       { 
....................       #ifdef _ERRNO 
....................       { 
....................          errno=EDOM; 
....................       } 
....................       #endif 
....................       } 
....................       else 
....................       { 
....................          if(sign) 
....................          { 
....................          return (-(PI_DIV_BY_TWO)); 
....................          } 
....................          else 
....................          { 
....................          return (PI_DIV_BY_TWO); 
....................          } 
....................       } 
....................    } 
....................    else 
....................    { 
....................       z=y/x; 
....................       switch(quad) 
....................       { 
....................          case 1: 
....................          { 
....................             return atan(z); 
....................             break; 
....................          } 
....................          case 2: 
....................          { 
.................... //            return (atan(z)+PI_DIV_BY_TWO);  //2L3122 
....................             return (PI-atan(z)); 
....................             break; 
....................          } 
....................          case 3: 
....................          { 
....................             return (atan(z)-PI); 
....................             break; 
....................          } 
....................          case 4: 
....................          { 
....................             return (-atan(z)); 
....................             break; 
....................          } 
....................       } 
....................    } 
.................... } 
....................  
.................... // Overloaded function atan2() for data type - Float64 
.................... float64 atan2(float64 y,float64 x) 
.................... { 
....................    float64 z; 
....................    int1 sign; 
....................    unsigned int8 quad; 
....................    sign=0; 
....................    quad=0; //quadrant 
....................    quad=((y<=0.0)?((x<=0.0)?3:4):((x<0.0)?2:1)); 
....................    if(y<0.0) 
....................    { 
....................       sign=1; 
....................       y=-y; 
....................    } 
....................    if(x<0.0) 
....................    { 
....................       x=-x; 
....................    } 
....................    if (x==0.0) 
....................    { 
....................       if(y==0.0) 
....................       { 
....................       #ifdef _ERRNO 
....................       { 
....................          errno=EDOM; 
....................       } 
....................       #endif 
....................       } 
....................       else 
....................       { 
....................          if(sign) 
....................          { 
....................          return (-(PI_DIV_BY_TWO)); 
....................          } 
....................          else 
....................          { 
....................          return (PI_DIV_BY_TWO); 
....................          } 
....................       } 
....................    } 
....................    else 
....................    { 
....................       z=y/x; 
....................       switch(quad) 
....................       { 
....................          case 1: 
....................          { 
....................             return atan(z); 
....................             break; 
....................          } 
....................          case 2: 
....................          { 
.................... //            return (atan(z)+PI_DIV_BY_TWO);  //2L3122 
....................             return (PI-atan(z)); 
....................             break; 
....................          } 
....................          case 3: 
....................          { 
....................             return (atan(z)-PI); 
....................             break; 
....................          } 
....................          case 4: 
....................          { 
....................             return (-atan(z)); 
....................             break; 
....................          } 
....................       } 
....................    } 
.................... } 
.................... #endif 
....................  
.................... //////////////////// Hyperbolic functions //////////////////// 
....................  
.................... //////////////////////////////////////////////////////////////////////////// 
.................... //   float cosh(float x) 
.................... //////////////////////////////////////////////////////////////////////////// 
.................... // Description : Computes the hyperbolic cosine value of x 
.................... // Returns : returns the hyperbolic cosine value of x 
.................... // Date : N/A 
.................... // 
....................  
.................... float32 cosh(float32 x) 
.................... { 
....................    return ((exp(x)+exp(-x))*0.5); 
.................... } 
.................... //Overloaded functions for cosh() for PCD 
.................... // Overloaded function cosh() for data type - Float48 
.................... #if defined(__PCD__) 
.................... float48 cosh(float48 x) 
.................... { 
....................    return ((exp(x)+exp(-x))*0.5); 
.................... } 
....................  
.................... // Overloaded function cosh() for data type - Float64 
.................... float64 cosh(float64 x) 
.................... { 
....................    return ((exp(x)+exp(-x))*0.5); 
.................... } 
.................... #endif 
....................  
.................... //////////////////////////////////////////////////////////////////////////// 
.................... //   float sinh(float x) 
.................... //////////////////////////////////////////////////////////////////////////// 
.................... // Description : Computes the hyperbolic sine value of x 
.................... // Returns : returns the hyperbolic sine value of x 
.................... // Date : N/A 
.................... // 
....................  
.................... float32 sinh(float32 x) 
.................... { 
....................  
....................    return ((exp(x) - exp(-x))*0.5); 
.................... } 
.................... //Overloaded functions for sinh() for PCD 
.................... // Overloaded function sinh() for data type - Float48 
.................... #if defined(__PCD__) 
.................... float48 sinh(float48 x) 
.................... { 
....................  
....................    return ((exp(x) - exp(-x))*0.5); 
.................... } 
....................  
.................... // Overloaded function sinh() for data type - Float48 
.................... float64 sinh(float64 x) 
.................... { 
....................  
....................    return ((exp(x) - exp(-x))*0.5); 
.................... } 
.................... #endif 
....................  
.................... //////////////////////////////////////////////////////////////////////////// 
.................... //   float tanh(float x) 
.................... //////////////////////////////////////////////////////////////////////////// 
.................... // Description : Computes the hyperbolic tangent value of x 
.................... // Returns : returns the hyperbolic tangent value of x 
.................... // Date : N/A 
.................... // 
....................  
.................... float32 tanh(float32 x) 
.................... { 
....................    return(sinh(x)/cosh(x)); 
.................... } 
.................... //Overloaded functions for tanh() for PCD 
.................... // Overloaded function tanh() for data type - Float48 
.................... #if defined(__PCD__) 
.................... float48 tanh(float48 x) 
.................... { 
....................    return(sinh(x)/cosh(x)); 
.................... } 
....................  
.................... // Overloaded function tanh() for data type - Float64 
.................... float64 tanh(float64 x) 
.................... { 
....................    return(sinh(x)/cosh(x)); 
.................... } 
.................... #endif 
....................  
.................... //////////////////////////////////////////////////////////////////////////// 
.................... //   float frexp(float x, signed int *exp) 
.................... //////////////////////////////////////////////////////////////////////////// 
.................... // Description : breaks a floating point number into a normalized fraction and an integral 
.................... // power of 2. It stores the integer in the signed int object pointed to by exp. 
.................... // Returns : returns the value x, such that x is a double with magnitude in the interval 
.................... // [1/2,1) or zero, and value equals x times 2 raised to the power *exp.If value is zero, 
.................... // both parts of the result are zero. 
.................... // Date : N/A 
.................... // 
....................  
.................... #define LOG2 .30102999566398119521 
.................... #define LOG2_INV 3.32192809488736234787 
.................... float32 frexp(float32 x, signed int8 *exp) 
.................... { 
....................    float32 res; 
....................    int1 sign = 0; 
....................    if(x == 0.0) 
....................    { 
....................       *exp=0; 
....................       return (0.0); 
....................    } 
....................    if(x < 0.0) 
....................    { 
....................      x=-x; 
....................      sign=1; 
....................    } 
....................    if (x > 1.0) 
....................    { 
....................       *exp=(ceil(log10(x)*LOG2_INV)); 
....................       res=x/(pow(2, *exp)); 
....................       if (res == 1) 
....................       { 
....................          *exp=*exp+1; 
....................           res=.5; 
....................       } 
....................    } 
....................    else 
....................    { 
....................       if(x < 0.5) 
....................       { 
....................          *exp=-1; 
....................          res=x*2; 
....................       } 
....................       else 
....................       { 
....................          *exp=0; 
....................           res=x; 
....................       } 
....................    } 
....................    if(sign) 
....................    { 
....................       res=-res; 
....................    } 
....................    return res; 
.................... } 
....................  
.................... //Overloaded functions for frexp() for PCD 
.................... // Overloaded function frexp() for data type - Float48 
.................... #if defined(__PCD__) 
.................... float48 frexp(float48 x, signed int8 *exp) 
.................... { 
....................    float48 res; 
....................    int1 sign = 0; 
....................    if(x == 0.0) 
....................    { 
....................       *exp=0; 
....................       return (0.0); 
....................    } 
....................    if(x < 0.0) 
....................    { 
....................      x=-x; 
....................      sign=1; 
....................    } 
....................    if (x > 1.0) 
....................    { 
....................       *exp=(ceil(log10(x)*LOG2_INV)); 
....................       res=x/(pow(2, *exp)); 
....................       if (res == 1) 
....................       { 
....................          *exp=*exp+1; 
....................           res=.5; 
....................       } 
....................    } 
....................    else 
....................    { 
....................       if(x < 0.5) 
....................       { 
....................          *exp=-1; 
....................          res=x*2; 
....................       } 
....................       else 
....................       { 
....................          *exp=0; 
....................           res=x; 
....................       } 
....................    } 
....................    if(sign) 
....................    { 
....................       res=-res; 
....................    } 
....................    return res; 
.................... } 
....................  
.................... // Overloaded function frexp() for data type - Float64 
.................... float64 frexp(float64 x, signed int8 *exp) 
.................... { 
....................    float64 res; 
....................    int1 sign = 0; 
....................    if(x == 0.0) 
....................    { 
....................       *exp=0; 
....................       return (0.0); 
....................    } 
....................    if(x < 0.0) 
....................    { 
....................      x=-x; 
....................      sign=1; 
....................    } 
....................    if (x > 1.0) 
....................    { 
....................       *exp=(ceil(log10(x)*LOG2_INV)); 
....................       res=x/(pow(2, *exp)); 
....................       if (res == 1) 
....................       { 
....................          *exp=*exp+1; 
....................           res=.5; 
....................       } 
....................    } 
....................    else 
....................    { 
....................       if(x < 0.5) 
....................       { 
....................          *exp=-1; 
....................          res=x*2; 
....................       } 
....................       else 
....................       { 
....................          *exp=0; 
....................           res=x; 
....................       } 
....................    } 
....................    if(sign) 
....................    { 
....................       res=-res; 
....................    } 
....................    return res; 
.................... } 
.................... #endif 
....................  
.................... ////////////////////////////////////////////////////////////////////////////// 
.................... //   float ldexp(float x, signed int *exp) 
.................... ////////////////////////////////////////////////////////////////////////////// 
.................... // Description : multiplies a floating point number by an integral power of 2. 
.................... // Returns : returns the value of x times 2 raised to the power exp. 
.................... // Date : N/A 
.................... // 
....................  
.................... float32 ldexp(float32 value, signed int8 exp) 
.................... { 
....................    return (value * pow(2,exp)); 
.................... } 
.................... //Overloaded functions for ldexp() for PCD 
.................... // Overloaded function ldexp() for data type - Float48 
....................  
.................... #if defined(__PCD__) 
.................... float48 ldexp(float48 value, signed int8 exp) 
.................... { 
....................    return (value * pow(2,exp)); 
.................... } 
.................... // Overloaded function ldexp() for data type - Float64 
.................... float64 ldexp(float64 value, signed int8 exp) 
.................... { 
....................    return (value * pow(2,exp)); 
.................... } 
.................... #endif 
....................  
.................... #endif 
....................  
....................  
.................... #ifndef FUNCIONES_H 
.................... #define FUNCIONES_H 
.................... //Declaracion de estados 
....................  
.................... #define 	PUNTO_TENS_CORR	0 
.................... #define 	CONVERSION_DESFASE	1 
.................... #define 	TENS_CORR_RMS	2 
.................... #define 	CALCULO_POT_ENER	3 
.................... #define 	MOSTRAR_DATOS	4 
....................  
.................... //Prototipos de los eventos 
.................... void maquina_estado(void); 
....................  
.................... #endif 
....................  
.................... #use fast_io(A) 
.................... #use fast_io(B) 
....................  
.................... extern int contador; 
.................... extern int pulso_timer; 
....................  
.................... void inicializar(); 
....................  
.................... void main() 
*
14FC:  CLRF   FF8
14FE:  BCF    FD0.7
1500:  BSF    07.7
1502:  BSF    20.0
1504:  BSF    20.0
1506:  BSF    20.0
*
150E:  CLRF   22
1510:  CLRF   23
1512:  BSF    20.0
1514:  CLRF   4C
*
1520:  MOVLW  07
1522:  MOVWF  FB4
.................... { 
....................  
.................... //declaracion de variables 
.................... //inicializacion de perifericos 
....................  
.................... 	inicializar() ; 
1524:  GOTO   02D0
....................  
....................  
.................... 	while(1) 
.................... 	{ 
....................  
.................... 		maquina_estado(); 
1528:  BRA    101E
152A:  BRA    1528
....................  
.................... 	} 
.................... } 
....................  
152C:  SLEEP 
.................... void Inicializar(){ 
....................  
....................     setup_adc_ports(AN0);                                   //Canal 0 analgico 
*
02D0:  MOVF   FC1,W
02D2:  ANDLW  C0
02D4:  IORLW  0E
02D6:  MOVWF  FC1
....................     setup_adc(ADC_CLOCK_DIV_16);    
02D8:  MOVF   FC0,W
02DA:  ANDLW  C0
02DC:  IORLW  05
02DE:  MOVWF  FC0
02E0:  BCF    FC0.7
02E2:  BSF    FC2.0
....................     setup_timer_0( RTCC_INTERNAL | T0_DIV_2); 
02E4:  MOVLW  80
02E6:  MOVWF  FD5
....................     set_tris_a(0xF1); 
02E8:  MOVLW  F1
02EA:  MOVWF  F92
....................     contador=1; 
02EC:  MOVLW  01
02EE:  MOVWF  22
....................     lcd_init(); 
02F0:  BRA    021E
....................     lcd_gotoxy(1,1); 
02F2:  MOVLW  01
02F4:  MOVWF  5C
02F6:  MOVWF  5D
02F8:  RCALL  027A
....................     lcd_backlight=ON; 
02FA:  BSF    20.0
....................     enable_interrupts (INT_RTCC); 
02FC:  BSF    FF2.5
....................     set_timer0(0x1D); 
02FE:  CLRF   FD7
0300:  MOVLW  1D
0302:  MOVWF  FD6
0304:  GOTO   1528 (RETURN)
.................... } 
....................  
....................  
.................... /** 
.................... *	\file funciones.c 
.................... *	\brief  
.................... *	\details Descripcion detallada del archivo 
.................... *	\author Postemsky Marcos 
.................... *	\date 17-09-2016 11:39:08 
.................... */ 
....................  
.................... #include <18F4550.h> 
.................... //////////// Standard Header file for the PIC18F4550 device //////////////// 
.................... /////////////////////////////////////////////////////////////////////////// 
.................... ////        (C) Copyright 1996, 2014 Custom Computer Services          //// 
.................... //// This source code may only be used by licensed users of the CCS C  //// 
.................... //// compiler.  This source code may only be distributed to other      //// 
.................... //// licensed users of the CCS C compiler.  No other use, reproduction //// 
.................... //// or distribution is permitted without written permission.          //// 
.................... //// Derivative programs created using this software in object code    //// 
.................... //// form are not restricted in any way.                               //// 
.................... /////////////////////////////////////////////////////////////////////////// 
.................... #device PIC18F4550 
*
00BC:  DATA 50,6F
00BE:  DATA 74,65
00C0:  DATA 6E,63
00C2:  DATA 69,61
00C4:  DATA 3D,20
00C6:  DATA 25,66
00C8:  DATA 20,57
00CA:  DATA 00,00
00CC:  DATA 54,3D
00CE:  DATA 25,66
00D0:  DATA 20,56
00D2:  DATA 20,20
00D4:  DATA 49,3D
00D6:  DATA 25,66
00D8:  DATA 20,41
00DA:  DATA 00,00
*
0DB8:  TBLRD*+
0DBA:  MOVFF  FF6,4E
0DBE:  MOVFF  FF7,4F
0DC2:  MOVFF  FF5,5B
0DC6:  RCALL  0D3C
0DC8:  MOVFF  4E,FF6
0DCC:  MOVFF  4F,FF7
0DD0:  DECFSZ 4D,F
0DD2:  BRA    0DB8
0DD4:  RETURN 0
0DD6:  MOVF   5A,W
0DD8:  SUBLW  B6
0DDA:  MOVWF  5A
0DDC:  CLRF   03
0DDE:  MOVFF  5B,5E
0DE2:  BSF    5B.7
0DE4:  BCF    FD8.0
0DE6:  RRCF   5B,F
0DE8:  RRCF   5C,F
0DEA:  RRCF   5D,F
0DEC:  RRCF   03,F
0DEE:  RRCF   02,F
0DF0:  RRCF   01,F
0DF2:  RRCF   00,F
0DF4:  DECFSZ 5A,F
0DF6:  BRA    0DE4
0DF8:  BTFSS  5E.7
0DFA:  BRA    0E12
0DFC:  COMF   00,F
0DFE:  COMF   01,F
0E00:  COMF   02,F
0E02:  COMF   03,F
0E04:  INCF   00,F
0E06:  BTFSC  FD8.2
0E08:  INCF   01,F
0E0A:  BTFSC  FD8.2
0E0C:  INCF   02,F
0E0E:  BTFSC  FD8.2
0E10:  INCF   03,F
0E12:  GOTO   0EF4 (RETURN)
0E16:  BTFSC  FD8.1
0E18:  BRA    0E20
0E1A:  CLRF   FEA
0E1C:  MOVLW  62
0E1E:  MOVWF  FE9
0E20:  CLRF   00
0E22:  CLRF   01
0E24:  CLRF   02
0E26:  CLRF   03
0E28:  CLRF   x62
0E2A:  CLRF   x63
0E2C:  CLRF   x64
0E2E:  CLRF   x65
0E30:  MOVF   x61,W
0E32:  IORWF  x60,W
0E34:  IORWF  5F,W
0E36:  IORWF  5E,W
0E38:  BZ    0E92
0E3A:  MOVLW  20
0E3C:  MOVWF  x66
0E3E:  BCF    FD8.0
0E40:  RLCF   5A,F
0E42:  RLCF   5B,F
0E44:  RLCF   5C,F
0E46:  RLCF   5D,F
0E48:  RLCF   x62,F
0E4A:  RLCF   x63,F
0E4C:  RLCF   x64,F
0E4E:  RLCF   x65,F
0E50:  MOVF   x61,W
0E52:  SUBWF  x65,W
0E54:  BNZ   0E66
0E56:  MOVF   x60,W
0E58:  SUBWF  x64,W
0E5A:  BNZ   0E66
0E5C:  MOVF   5F,W
0E5E:  SUBWF  x63,W
0E60:  BNZ   0E66
0E62:  MOVF   5E,W
0E64:  SUBWF  x62,W
0E66:  BNC   0E86
0E68:  MOVF   5E,W
0E6A:  SUBWF  x62,F
0E6C:  MOVF   5F,W
0E6E:  BTFSS  FD8.0
0E70:  INCFSZ 5F,W
0E72:  SUBWF  x63,F
0E74:  MOVF   x60,W
0E76:  BTFSS  FD8.0
0E78:  INCFSZ x60,W
0E7A:  SUBWF  x64,F
0E7C:  MOVF   x61,W
0E7E:  BTFSS  FD8.0
0E80:  INCFSZ x61,W
0E82:  SUBWF  x65,F
0E84:  BSF    FD8.0
0E86:  RLCF   00,F
0E88:  RLCF   01,F
0E8A:  RLCF   02,F
0E8C:  RLCF   03,F
0E8E:  DECFSZ x66,F
0E90:  BRA    0E3E
0E92:  MOVFF  62,FEF
0E96:  MOVFF  63,FEC
0E9A:  MOVFF  64,FEC
0E9E:  MOVFF  65,FEC
0EA2:  RETURN 0
0EA4:  MOVF   FE9,W
0EA6:  MOVWF  52
0EA8:  MOVF   51,W
0EAA:  MOVWF  54
0EAC:  BZ    0EE2
0EAE:  MOVFF  50,82
0EB2:  MOVFF  4F,81
0EB6:  MOVFF  4E,80
0EBA:  MOVFF  4D,7F
0EBE:  CLRF   x86
0EC0:  CLRF   x85
0EC2:  MOVLW  20
0EC4:  MOVWF  x84
0EC6:  MOVLW  82
0EC8:  MOVWF  x83
0ECA:  CALL   03A6
0ECE:  MOVFF  03,50
0ED2:  MOVFF  02,4F
0ED6:  MOVFF  01,4E
0EDA:  MOVFF  00,4D
0EDE:  DECFSZ 54,F
0EE0:  BRA    0EAE
0EE2:  MOVFF  50,5D
0EE6:  MOVFF  4F,5C
0EEA:  MOVFF  4E,5B
0EEE:  MOVFF  4D,5A
0EF2:  BRA    0DD6
0EF4:  MOVFF  03,50
0EF8:  MOVFF  02,4F
0EFC:  MOVFF  01,4E
0F00:  MOVFF  00,4D
0F04:  BTFSS  50.7
0F06:  BRA    0F22
0F08:  DECF   52,F
0F0A:  BSF    52.5
0F0C:  COMF   4D,F
0F0E:  COMF   4E,F
0F10:  COMF   4F,F
0F12:  COMF   50,F
0F14:  INCF   4D,F
0F16:  BTFSC  FD8.2
0F18:  INCF   4E,F
0F1A:  BTFSC  FD8.2
0F1C:  INCF   4F,F
0F1E:  BTFSC  FD8.2
0F20:  INCF   50,F
0F22:  MOVLW  3B
0F24:  MOVWF  59
0F26:  MOVLW  9A
0F28:  MOVWF  58
0F2A:  MOVLW  CA
0F2C:  MOVWF  57
0F2E:  CLRF   56
0F30:  MOVLW  0A
0F32:  MOVWF  54
0F34:  MOVF   51,W
0F36:  BTFSC  FD8.2
0F38:  INCF   52,F
0F3A:  BSF    FD8.1
0F3C:  CLRF   FEA
0F3E:  MOVLW  4D
0F40:  MOVWF  FE9
0F42:  MOVFF  50,5D
0F46:  MOVFF  4F,5C
0F4A:  MOVFF  4E,5B
0F4E:  MOVFF  4D,5A
0F52:  MOVFF  59,61
0F56:  MOVFF  58,60
0F5A:  MOVFF  57,5F
0F5E:  MOVFF  56,5E
0F62:  RCALL  0E16
0F64:  MOVF   01,W
0F66:  MOVF   00,F
0F68:  BNZ   0F88
0F6A:  INCF   51,W
0F6C:  SUBWF  54,W
0F6E:  BZ    0F88
0F70:  MOVF   52,W
0F72:  BZ    0F8C
0F74:  ANDLW  0F
0F76:  SUBWF  54,W
0F78:  BZ    0F7C
0F7A:  BC    0FEA
0F7C:  BTFSC  52.7
0F7E:  BRA    0FEA
0F80:  BTFSC  52.6
0F82:  BRA    0F8C
0F84:  MOVLW  20
0F86:  BRA    0FE2
0F88:  MOVLW  20
0F8A:  ANDWF  52,F
0F8C:  BTFSS  52.5
0F8E:  BRA    0FA8
0F90:  BCF    52.5
0F92:  MOVF   51,W
0F94:  BTFSS  FD8.2
0F96:  DECF   52,F
0F98:  MOVF   00,W
0F9A:  MOVWF  52
0F9C:  MOVLW  2D
0F9E:  MOVWF  5B
0FA0:  RCALL  0D3C
0FA2:  MOVF   52,W
0FA4:  MOVWF  00
0FA6:  CLRF   52
0FA8:  MOVF   51,W
0FAA:  SUBWF  54,W
0FAC:  BNZ   0FC2
0FAE:  MOVF   00,W
0FB0:  MOVWF  52
0FB2:  MOVLW  2E
0FB4:  MOVWF  5B
0FB6:  RCALL  0D3C
0FB8:  MOVF   52,W
0FBA:  MOVWF  00
0FBC:  MOVLW  20
0FBE:  ANDWF  52,F
0FC0:  MOVLW  00
0FC2:  MOVLW  30
0FC4:  BTFSS  52.5
0FC6:  BRA    0FE2
0FC8:  BCF    52.5
0FCA:  MOVF   51,W
0FCC:  BTFSS  FD8.2
0FCE:  DECF   52,F
0FD0:  MOVF   00,W
0FD2:  MOVWF  52
0FD4:  MOVLW  2D
0FD6:  MOVWF  5B
0FD8:  RCALL  0D3C
0FDA:  MOVF   52,W
0FDC:  MOVWF  00
0FDE:  CLRF   52
0FE0:  MOVLW  30
0FE2:  ADDWF  00,F
0FE4:  MOVFF  00,5B
0FE8:  RCALL  0D3C
0FEA:  BCF    FD8.1
0FEC:  MOVFF  59,5D
0FF0:  MOVFF  58,5C
0FF4:  MOVFF  57,5B
0FF8:  MOVFF  56,5A
0FFC:  CLRF   x61
0FFE:  CLRF   x60
1000:  CLRF   5F
1002:  MOVLW  0A
1004:  MOVWF  5E
1006:  RCALL  0E16
1008:  MOVFF  03,59
100C:  MOVFF  02,58
1010:  MOVFF  01,57
1014:  MOVFF  00,56
1018:  DECFSZ 54,F
101A:  BRA    0F3A
101C:  RETURN 0
....................  
.................... #list 
....................  
.................... #use delay(clock=12 Mhz, crystal= 12 MHz)   // Selecciona la velocidad del oscilador interno 
.................... #use i2c(Master,Fast=100000, sda=PIN_D6, scl=PIN_D7,force_sw) 
.................... int contador = 0 ;int pulso_timer = 0 ; 
.................... #include "funciones.h"  
.................... /** 
.................... *	\file funciones.h 
.................... *	\brief Resumen del archivo 
.................... *	\details Descripcion detallada del archivo 
.................... *	\author Postemsky Marcos 
.................... *	\date 17-09-2016 11:39:08 
.................... */ 
....................  
.................... #include <i2c_Flex_LCD.h> 
.................... //----------------------------------------------------------------------------- 
.................... // Title:         i2c_Flex_LCD 
.................... // Description:   Driver for common LCD with 1/2/3 or 4 row modules using PCF8574T interface board with I2C protocol. 
.................... // Date:          Nov-2013 
.................... // Ver.Rev.:      1.0 
.................... // Author:        Hugo Silva (sergio-hugo@bol.com.br) #Based on the routines of 20X4_LCD_I2C_DRIVER.h from Pumrin S. 
.................... //----------------------------------------------------------------------------- 
.................... // 
.................... // lcd_init() Must be called before any other function. 
.................... // 
.................... // lcd_putc(c) Will display c on the next position of the LCD. 
.................... //  
.................... //     \f Clear LCD dispay 
.................... //     \1 Set write position on LCD Line 1 
.................... //     \2 Set write position on LCD Line 2 
.................... //     \3 Set write position on LCD Line 3 
.................... //     \4 Set write position on LCD Line 4 
.................... // 
.................... //     lcd_gotoxy(x,y) Set write position on LCD (upper left is 1,1) 
.................... // 
.................... //----------------------------------------------------------------------------- 
.................... // LCD pins D0-D3 are not used. 
.................... //----------------------------------------------------------------------------- 
.................... // 
.................... // Commment   : Control of a compatible LCD HITACHI from a bus I2C with 
.................... //              an EXPANDER of I/O with connection I2C. The tests of these 
.................... //              routines have been programmed using the IC PCF8574T of Phillips. 
.................... //              I used 4 bits mode programming. The 8 bits mode programming 
.................... //              is possible if you use 2 x PCF8574T. 
.................... // 
.................... // As defined in the following structure the pin connection is as follows: 
.................... // 
.................... //  PCF8574P     LCD 
.................... //  ========     ====== 
.................... //     P0        RS 
.................... //     P1        RW 
.................... //     P2        Enable  
.................... //     P3        Led Backlight 
.................... //     P4        D4 
.................... //     P5        D5 
.................... //     P6        D6 
.................... //     P7        D7 
.................... // 
.................... //  The SCL and SDA pins should be pull-up resistor as shown below: 
.................... // 
.................... //             +5v 
.................... //               | 
.................... //               < 
.................... //               > 4.7K        
.................... //               <          
.................... //To PIC         |          To i2c slave 
.................... //pin xx ------------------ SDA pin  
.................... //(SDA)                      
.................... //              +5v 
.................... //               | 
.................... //               < 
.................... //               > 4.7K        
.................... //               <          
.................... //To PIC         |          To i2c slave 
.................... //pin xx ------------------ SCL pin  
.................... //(SCL) 
.................... // 
.................... //To PIC                    To i2c slave 
.................... //Vss pin ----------------- Vss or ground pin  
.................... //                | 
.................... //              ----- 
.................... //               ---  Ground 
.................... //                -  
.................... //  
.................... // THIS DOCUMENT IS PROVIDED TO THE USER "AS IS" 
.................... //----------------------------------------------------------------------------- 
.................... //For PCF8574T the addressing is: 
....................  
.................... //Jp3 Jp2 Jp1 
.................... //A2 A1 A0  Hex 
.................... //L L L  0x40 
.................... //L L H  0x42 
.................... //L H L  0x44 
.................... //L H H  0x46 
.................... //H L L  0x48 
.................... //H L H  0x4A 
.................... //H H L  0x4C 
.................... //H H H  0x4E 
....................  
.................... //---------------------------------------------------------------------------- 
.................... #define LCD_ADDR       0x4E //I2C slave address for LCD module 
....................  
.................... #define ON             1 
.................... #define OFF            0 
.................... #define RS             0b00000001  //P0 - PCF8574T Pin connected to RS 
.................... #define RW             0b00000010  //P1 - PCF8574T Pin connected to RW 
.................... #define EN             0b00000100  //P2 - PCF8574T Pin connected to EN 
.................... #define BACKLIGHT_LED  0b00001000  //P3 - PCF8574T Pin connected to BACKLIGHT LED 
....................  
.................... #define lcd_line_one   0x80   // LCD RAM address for line 1 
.................... #define lcd_line_two   0xC0   // LCD RAM address for line 2 
.................... #define lcd_line_three 0x94   // LCD RAM address for line 3 
.................... #define lcd_line_four  0xD4   // LCD RAM address for line 4 
....................   
.................... byte address; 
.................... int1 lcd_backlight=ON; 
....................  
.................... void i2c_lcd_backlight_On(){ 
....................       lcd_backlight=ON; 
.................... } 
....................  
.................... void i2c_lcd_backlight_Off(){ 
....................       lcd_backlight=OFF; 
.................... } 
....................  
.................... void i2c_send_nibble(unsigned char data) 
....................    {    
....................         i2c_start(); 
*
0170:  BSF    F95.6
0172:  MOVLW  02
0174:  MOVWF  00
0176:  DECFSZ 00,F
0178:  BRA    0176
017A:  BSF    F95.7
017C:  MOVLW  02
017E:  MOVWF  00
0180:  DECFSZ 00,F
0182:  BRA    0180
0184:  BCF    F8C.6
0186:  BCF    F95.6
0188:  MOVLW  02
018A:  MOVWF  00
018C:  DECFSZ 00,F
018E:  BRA    018C
0190:  BCF    F8C.7
0192:  BCF    F95.7
....................         delay_us(20); 
0194:  MOVLW  13
0196:  MOVWF  00
0198:  DECFSZ 00,F
019A:  BRA    0198
019C:  BRA    019E
....................         i2c_write(LCD_ADDR); //the slave addresse 
019E:  MOVLW  4E
01A0:  MOVWF  x60
01A2:  RCALL  0104
....................         delay_us(20); 
01A4:  MOVLW  13
01A6:  MOVWF  00
01A8:  DECFSZ 00,F
01AA:  BRA    01A8
01AC:  BRA    01AE
....................         i2c_write(data); 
01AE:  MOVFF  5F,60
01B2:  RCALL  0104
....................         delay_us(20); 
01B4:  MOVLW  13
01B6:  MOVWF  00
01B8:  DECFSZ 00,F
01BA:  BRA    01B8
01BC:  BRA    01BE
....................         i2c_stop(); 
01BE:  BCF    F95.6
01C0:  NOP   
01C2:  BSF    F95.7
01C4:  BTFSS  F83.7
01C6:  BRA    01C4
01C8:  MOVLW  02
01CA:  MOVWF  00
01CC:  DECFSZ 00,F
01CE:  BRA    01CC
01D0:  BRA    01D2
01D2:  NOP   
01D4:  BSF    F95.6
01D6:  MOVLW  02
01D8:  MOVWF  00
01DA:  DECFSZ 00,F
01DC:  BRA    01DA
....................         delay_us(20); 
01DE:  MOVLW  13
01E0:  MOVWF  00
01E2:  DECFSZ 00,F
01E4:  BRA    01E2
01E6:  BRA    01E8
01E8:  RETURN 0
....................    } 
....................  
.................... void lcd_send_byte(unsigned char data) 
....................    { 
....................         if (lcd_backlight) data=data|EN|BACKLIGHT_LED; else data=data|EN; //set pin EN 
01EA:  BTFSS  20.0
01EC:  BRA    01F8
01EE:  MOVF   5E,W
01F0:  IORLW  04
01F2:  IORLW  08
01F4:  MOVWF  5E
01F6:  BRA    01FA
01F8:  BSF    5E.2
....................         i2c_send_nibble(data); 
01FA:  MOVFF  5E,5F
01FE:  RCALL  0170
....................         data=data-4;       //toggle EN back to 0 
0200:  MOVLW  04
0202:  SUBWF  5E,F
....................         i2c_send_nibble(data); 
0204:  MOVFF  5E,5F
0208:  RCALL  0170
020A:  RETURN 0
....................    } 
....................     
.................... void lcd_clear() 
.................... { 
....................     lcd_send_byte(0x00); 
020C:  CLRF   5E
020E:  RCALL  01EA
....................     lcd_send_byte(0x10); 
0210:  MOVLW  10
0212:  MOVWF  5E
0214:  RCALL  01EA
....................     delay_ms(2); 
0216:  MOVLW  02
0218:  MOVWF  5C
021A:  RCALL  00DC
021C:  RETURN 0
.................... } 
....................  
.................... void lcd_init() 
.................... { 
....................     delay_ms(200); //LCD power up delay 
021E:  MOVLW  C8
0220:  MOVWF  5C
0222:  RCALL  00DC
....................         
....................    //Request works on the command by set the RS = 0 R/W = 0 write 
....................         lcd_send_byte(0x00); 
0224:  CLRF   5E
0226:  RCALL  01EA
....................         lcd_send_byte(0x10); 
0228:  MOVLW  10
022A:  MOVWF  5E
022C:  RCALL  01EA
....................         lcd_send_byte(0x00); 
022E:  CLRF   5E
0230:  RCALL  01EA
....................         lcd_send_byte(0x00); 
0232:  CLRF   5E
0234:  RCALL  01EA
....................         lcd_send_byte(0x10); 
0236:  MOVLW  10
0238:  MOVWF  5E
023A:  RCALL  01EA
....................            //First state in 8 bit mode 
....................         lcd_send_byte(0x30); 
023C:  MOVLW  30
023E:  MOVWF  5E
0240:  RCALL  01EA
....................         lcd_send_byte(0x30); 
0242:  MOVLW  30
0244:  MOVWF  5E
0246:  RCALL  01EA
....................            //Then set to 4-bit mode 
....................         lcd_send_byte(0x30); 
0248:  MOVLW  30
024A:  MOVWF  5E
024C:  RCALL  01EA
....................         lcd_send_byte(0x20); 
024E:  MOVLW  20
0250:  MOVWF  5E
0252:  RCALL  01EA
....................            //mode 4 bits, 2 lines, characters 5 x 7 (28 h) 
....................         lcd_send_byte(0x20); 
0254:  MOVLW  20
0256:  MOVWF  5E
0258:  RCALL  01EA
....................         lcd_send_byte(0x80); 
025A:  MOVLW  80
025C:  MOVWF  5E
025E:  RCALL  01EA
....................            //no need cursor on (0Ch) 
....................         lcd_send_byte(0x00); 
0260:  CLRF   5E
0262:  RCALL  01EA
....................         lcd_send_byte(0xC0); 
0264:  MOVLW  C0
0266:  MOVWF  5E
0268:  RCALL  01EA
....................            //the cursor moves to the left (06 h) 
....................         lcd_send_byte(0x00); 
026A:  CLRF   5E
026C:  RCALL  01EA
....................         lcd_send_byte(0x60); 
026E:  MOVLW  60
0270:  MOVWF  5E
0272:  RCALL  01EA
....................            //clears the display 
....................         lcd_clear(); 
0274:  RCALL  020C
0276:  GOTO   02F2 (RETURN)
.................... } 
....................  
.................... void lcd_gotoxy( byte x, byte y) 
.................... {      
.................... static char data; 
....................       
....................    switch(y) 
027A:  MOVF   5D,W
027C:  XORLW  01
027E:  BZ    028E
0280:  XORLW  03
0282:  BZ    0294
0284:  XORLW  01
0286:  BZ    029A
0288:  XORLW  07
028A:  BZ    02A0
028C:  BRA    02A6
....................    { 
....................       case 1:  address= lcd_line_one;     break; 
028E:  MOVLW  80
0290:  MOVWF  1F
0292:  BRA    02AA
....................       case 2:  address= lcd_line_two;     break; 
0294:  MOVLW  C0
0296:  MOVWF  1F
0298:  BRA    02AA
....................       case 3:  address= lcd_line_three;   break; 
029A:  MOVLW  94
029C:  MOVWF  1F
029E:  BRA    02AA
....................       case 4:  address= lcd_line_four;    break; 
02A0:  MOVLW  D4
02A2:  MOVWF  1F
02A4:  BRA    02AA
....................       default: address= lcd_line_one;     break;  
02A6:  MOVLW  80
02A8:  MOVWF  1F
....................    } 
....................   
....................    address+=x-1; 
02AA:  MOVLW  01
02AC:  SUBWF  5C,W
02AE:  ADDWF  1F,F
....................    data=address&0xF0; 
02B0:  MOVF   1F,W
02B2:  ANDLW  F0
02B4:  MOVWF  24
....................    lcd_send_byte(data); 
02B6:  MOVFF  24,5E
02BA:  RCALL  01EA
....................    data=address&0x0F; 
02BC:  MOVF   1F,W
02BE:  ANDLW  0F
02C0:  MOVWF  24
....................    data=data<<4; 
02C2:  SWAPF  24,F
02C4:  MOVLW  F0
02C6:  ANDWF  24,F
....................    lcd_send_byte(data); 
02C8:  MOVFF  24,5E
02CC:  RCALL  01EA
02CE:  RETURN 0
.................... } 
....................  
.................... //Display the character on LCD screen. 
.................... void LCD_PUTC(char in_data) 
.................... { 
....................  char data;      
....................   switch(in_data) 
*
0D3C:  MOVF   5B,W
0D3E:  XORLW  0C
0D40:  BZ    0D54
0D42:  XORLW  0D
0D44:  BZ    0D5A
0D46:  XORLW  03
0D48:  BZ    0D66
0D4A:  XORLW  01
0D4C:  BZ    0D74
0D4E:  XORLW  07
0D50:  BZ    0D82
0D52:  BRA    0D90
....................    {  
....................      case '\f': lcd_clear()    ;  break;                
0D54:  CALL   020C
0D58:  BRA    0DB6
....................      case '\1': lcd_gotoxy(1,1);  break; 
0D5A:  MOVLW  01
0D5C:  MOVWF  5C
0D5E:  MOVWF  5D
0D60:  CALL   027A
0D64:  BRA    0DB6
....................      case '\2': lcd_gotoxy(1,2);  break; 
0D66:  MOVLW  01
0D68:  MOVWF  5C
0D6A:  MOVLW  02
0D6C:  MOVWF  5D
0D6E:  CALL   027A
0D72:  BRA    0DB6
....................      case '\3': lcd_gotoxy(1,3);  break; 
0D74:  MOVLW  01
0D76:  MOVWF  5C
0D78:  MOVLW  03
0D7A:  MOVWF  5D
0D7C:  CALL   027A
0D80:  BRA    0DB6
....................      case '\4': lcd_gotoxy(1,4);  break; 
0D82:  MOVLW  01
0D84:  MOVWF  5C
0D86:  MOVLW  04
0D88:  MOVWF  5D
0D8A:  CALL   027A
0D8E:  BRA    0DB6
....................  
....................      default: 
....................         data=in_data&0xF0; 
0D90:  MOVF   5B,W
0D92:  ANDLW  F0
0D94:  MOVWF  5C
....................         data=data|RS; //set RS pin to 1 
0D96:  BSF    5C.0
....................         lcd_send_byte(data); 
0D98:  MOVFF  5C,5E
0D9C:  CALL   01EA
....................         data=in_data&0x0F; 
0DA0:  MOVF   5B,W
0DA2:  ANDLW  0F
0DA4:  MOVWF  5C
....................         data=data<<4; 
0DA6:  SWAPF  5C,F
0DA8:  MOVLW  F0
0DAA:  ANDWF  5C,F
....................         data=data|RS; //set RS pin to 1 
0DAC:  BSF    5C.0
....................         lcd_send_byte(data); 
0DAE:  MOVFF  5C,5E
0DB2:  CALL   01EA
....................      break; 
....................    } 
0DB6:  RETURN 0
.................... }  
....................  
.................... #include <MAX191.h> 
.................... /*  
....................  * File:   MAX191.h 
....................  * Author: MARCOS 
....................  * 
....................  * Created on 23 de septiembre de 2016, 08:14 
....................  */ 
....................  
.................... #ifndef MAX192_H 
.................... #define MAX192_H 
....................  
.................... #define ADC_CS1 PIN_A1 
.................... #define ADC_SCLK PIN_A2 
.................... #define ADC_DOUT PIN_A3 
....................  
.................... unsigned long leer_ADC(ADC){ 
....................     unsigned long dato; 
....................     int i; 
....................     output_low (ADC_SCLK); 
*
0308:  BCF    F92.2
030A:  BCF    F89.2
....................     output_low (ADC_CS1); 
030C:  BCF    F92.1
030E:  BCF    F89.1
....................      
....................      
....................     if (ADC==2){ 
0310:  MOVF   50,W
0312:  SUBLW  02
0314:  BNZ   034A
....................          
....................         output_low (ADC_CS1); // modo CPOL = 0, CPHA = 0 
0316:  BCF    F92.1
0318:  BCF    F89.1
....................         delay_us(1); 
031A:  BRA    031C
031C:  NOP   
....................          
....................         for(i=0;i<16;i++){ 
031E:  CLRF   53
0320:  MOVF   53,W
0322:  SUBLW  0F
0324:  BNC   0342
....................           output_high(ADC_SCLK); 
0326:  BCF    F92.2
0328:  BSF    F89.2
....................           shift_left(&dato,2,input(ADC_DOUT));  
032A:  BSF    F92.3
032C:  BTFSC  F80.3
032E:  BRA    0334
0330:  BCF    FD8.0
0332:  BRA    0336
0334:  BSF    FD8.0
0336:  RLCF   51,F
0338:  RLCF   52,F
....................           output_low(ADC_SCLK);  
033A:  BCF    F92.2
033C:  BCF    F89.2
033E:  INCF   53,F
0340:  BRA    0320
....................         } 
....................   
....................         output_low (ADC_SCLK); 
0342:  BCF    F92.2
0344:  BCF    F89.2
....................         output_high (ADC_CS1); 
0346:  BCF    F92.1
0348:  BSF    F89.1
....................     } 
....................  
....................     dato= (dato>>2)& 0x0FFF; 
034A:  RRCF   52,W
034C:  MOVWF  55
034E:  RRCF   51,W
0350:  MOVWF  54
0352:  RRCF   55,F
0354:  RRCF   54,F
0356:  MOVLW  3F
0358:  ANDWF  55,F
035A:  MOVFF  54,51
035E:  MOVF   55,W
0360:  ANDLW  0F
0362:  MOVWF  52
....................     return(dato); 
0364:  MOVFF  51,01
0368:  MOVFF  52,02
036C:  GOTO   1050 (RETURN)
.................... } 
.................... #endif 
....................  
....................  
.................... #include <math.h> 
.................... //////////////////////////////////////////////////////////////////////////// 
.................... ////        (C) Copyright 1996,2011 Custom Computer Services            //// 
.................... //// This source code may only be used by licensed users of the CCS C   //// 
.................... //// compiler.  This source code may only be distributed to other       //// 
.................... //// licensed users of the CCS C compiler.  No other use, reproduction  //// 
.................... //// or distribution is permitted without written permission.           //// 
.................... //// Derivative programs created using this software in object code     //// 
.................... //// form are not restricted in any way.                                //// 
.................... //////////////////////////////////////////////////////////////////////////// 
.................... ////                                                                    //// 
.................... //// History:                                                           //// 
.................... ////  * 9/20/2001 :  Improvments are made to sin/cos code.              //// 
.................... ////                 The code now is small, much faster,                //// 
.................... ////                 and more accurate.                                 //// 
.................... ////  * 2/21/2007 :  Compiler handles & operator differently and does   //// 
.................... ////                 not return generic (int8 *) so type cast is done   //// 
.................... ////  * 6/19/2010 :  Divisions by constants converted to multiplication //// 
.................... ////                 by its inverse to improve computation speed        //// 
.................... ////  * 1/21/2011 :  Constants used for double precision math updated   //// 
.................... ////                 Updated routines include 64 bit versions of cos,   //// 
.................... ////                 asin,atan,exp,log and dependant functions          //// 
.................... ////  * 1/31/2011 :  Optimized current 32-bit float routines for cos    //// 
.................... ////                 and log function                                   //// 
.................... ////  * 6/13/2011 :  Fixed PCD overload CEIL_FLOOR functions for values //// 
.................... ////                 greater then 10000000 and less then -10000000      //// 
.................... ////                                                                    //// 
.................... //////////////////////////////////////////////////////////////////////////// 
....................  
.................... #ifndef MATH_H 
.................... #define MATH_H 
....................  
.................... #ifdef PI 
.................... #undef  PI 
.................... #endif 
.................... #define PI     3.1415926535897932 
....................  
....................  
.................... #define SQRT2  1.4142135623730950 
....................  
.................... //float const ps[4] = {5.9304945, 21.125224, 8.9403076, 0.29730279}; 
.................... //float const qs[4] = {1.0000000, 15.035723, 17.764134, 2.4934718}; 
....................  
.................... ///////////////////////////// Round Functions ////////////////////////////// 
....................  
.................... float32 CEIL_FLOOR(float32 x, unsigned int8 n) 
.................... { 
....................    float32 y, res; 
....................    unsigned int16 l; 
....................    int1 s; 
....................  
....................    s = 0; 
....................    y = x; 
....................  
....................    if (x < 0) 
....................    { 
....................       s = 1; 
....................       y = -y; 
....................    } 
....................  
....................    if (y <= 32768.0) 
....................       res = (float32)(unsigned int16)y; 
....................  
....................  else if (y < 10000000.0) 
....................    {  
....................       l = (unsigned int16)(y*0.000030517578125); 
....................       y = 32768.0*(y*0.000030517578125 - (float32)l); 
....................       res = 32768.0*(float32)l; 
....................       res += (float32)(unsigned int16)y; 
....................    } 
....................  
....................  else 
....................   res = y; 
....................  
....................  y = y - (float32)(unsigned int16)y; 
....................  
....................  if (s) 
....................   res = -res; 
....................  
....................  if (y != 0) 
....................  { 
....................   if (s == 1 && n == 0) 
....................    res -= 1.0; 
....................  
....................   if (s == 0 && n == 1) 
....................    res += 1.0; 
....................  } 
....................  if (x == 0) 
....................     res = 0; 
....................  
....................  return (res); 
.................... } 
....................  
.................... // Overloaded Functions to take care for new Data types in PCD 
.................... // Overloaded function CEIL_FLOOR() for data type - Float48 
.................... #if defined(__PCD__) 
.................... float48 CEIL_FLOOR(float48 x, unsigned int8 n) 
.................... { 
....................    float48 y, res; 
....................    unsigned int32 l; 
....................    int1 s; 
....................  
....................    s = 0; 
....................    y = x; 
....................  
....................    if (x < 0) 
....................    { 
....................       s = 1; 
....................       y = -y; 
....................    } 
....................  
....................    if (y <= 32768.0) 
....................       res = (float48)(unsigned int16)y; 
....................  
....................    else if (y < 549755813888.0) 
....................    { 
....................       l = (unsigned int32)(y*0.000030517578125); 
....................       y = 32768.0*(y*0.000030517578125 - (float48)l); 
....................       res = 32768.0*(float48)l; 
....................       res += (float48)(unsigned int16)y; 
....................    } 
....................    else 
....................    {   
....................       res = y; 
....................       y = 0.0; 
....................    } 
....................     
....................    if(y != 0) 
....................       y = y - (float48)(unsigned int16)y; 
....................  
....................    if (s) 
....................       res = -res; 
....................  
....................    if (y != 0) 
....................    { 
....................       if (s == 1 && n == 0) 
....................          res -= 1.0; 
....................  
....................       if (s == 0 && n == 1) 
....................          res += 1.0; 
....................    } 
....................    if (x == 0) 
....................       res = 0; 
....................  
....................    return (res); 
.................... } 
....................  
....................  
.................... // Overloaded function CEIL_FLOOR() for data type - Float64 
.................... float64 CEIL_FLOOR(float64 x, unsigned int8 n) 
.................... { 
....................    float64 y, res; 
....................    int64 l; 
....................    int1 s; 
....................  
....................    s = 0; 
....................    y = x; 
....................  
....................    if (x < 0) 
....................    { 
....................       s = 1; 
....................       y = -y; 
....................    } 
....................  
....................    if (y <= 32768.0) 
....................       res = (float64)(unsigned int16)y; 
....................    else if (y < 4503599627370496.0) 
....................    { 
....................       l = (int64)(y*0.000030517578125); 
....................       y = 32768.0*(y*0.000030517578125 - (float64)l); 
....................       res = 32768.0*(float64)l; 
....................       res += (float64)(unsigned int16)y; 
....................    } 
....................    else 
....................    { 
....................       res = y; 
....................       y = 0.0; 
....................    } 
....................     
....................    if(y != 0) 
....................       y = y - (float64)(unsigned int16)y; 
....................  
....................    if (s) 
....................       res = -res; 
....................  
....................    if (y != 0) 
....................    { 
....................       if (s == 1 && n == 0) 
....................          res -= 1.0; 
....................  
....................       if (s == 0 && n == 1) 
....................          res += 1.0; 
....................    } 
....................     
....................    if (x == 0) 
....................       res = 0; 
....................  
....................    return (res); 
.................... } 
.................... #endif 
....................  
.................... //////////////////////////////////////////////////////////////////////////// 
.................... //   float floor(float x) 
.................... //////////////////////////////////////////////////////////////////////////// 
.................... // Description : rounds down the number x. 
.................... // Date : N/A 
.................... // 
.................... float32 floor(float32 x) 
.................... { 
....................    return CEIL_FLOOR(x,0); 
.................... } 
.................... // Following 2 functions are overloaded functions of floor() for PCD 
.................... // Overloaded function floor() for data type - Float48 
.................... #if defined(__PCD__) 
.................... float48 floor(float48 x) 
.................... { 
....................    return CEIL_FLOOR(x, 0); 
.................... } 
....................  
.................... // Overloaded function floor() for data type - Float64 
.................... float64 floor(float64 x) 
.................... { 
....................    return CEIL_FLOOR(x, 0); 
.................... } 
.................... #endif 
....................  
....................  
.................... //////////////////////////////////////////////////////////////////////////// 
.................... //   float ceil(float x) 
.................... //////////////////////////////////////////////////////////////////////////// 
.................... // Description : rounds up the number x. 
.................... // Date : N/A 
.................... // 
.................... float32 ceil(float32 x) 
.................... { 
....................    return CEIL_FLOOR(x, 1); 
.................... } 
.................... // Following 2 functions are overloaded functions of ceil() for PCD 
.................... // Overloaded function ceil() for data type - Float48 
.................... #if defined(__PCD__) 
.................... float48 ceil(float48 x) 
.................... { 
....................    return CEIL_FLOOR(x, 1); 
.................... } 
....................  
.................... // Overloaded function ceil() for data type - Float64 
.................... float64 ceil(float64 x) 
.................... { 
....................    return CEIL_FLOOR(x, 1); 
.................... } 
.................... #endif 
....................  
....................  //////////////////////////////////////////////////////////////////////////// 
.................... //   float fabs(float x) 
.................... //////////////////////////////////////////////////////////////////////////// 
.................... // Description : Computes the absolute value of floating point number x 
.................... // Returns : returns the absolute value of x 
.................... // Date : N/A 
.................... // 
.................... #define fabs abs 
....................  
.................... //////////////////////////////////////////////////////////////////////////// 
.................... //   float fmod(float x) 
.................... //////////////////////////////////////////////////////////////////////////// 
.................... // Description : Computes the floating point remainder of x/y 
.................... // Returns : returns the value of x= i*y, for some integer i such that, if y 
.................... // is non zero, the result has the same isgn of x na dmagnitude less than the 
.................... // magnitude of y. If y is zero then a domain error occurs. 
.................... // Date : N/A 
.................... // 
....................  
.................... float fmod(float32 x,float32 y) 
.................... { 
....................    float32 i; 
....................    if (y!=0.0) 
....................    { 
....................       i=(x/y < 0.0)? ceil(x/y): floor(x/y); 
....................       return(x-(i*y)); 
....................    } 
....................    else 
....................    { 
....................    #ifdef _ERRNO 
....................    { 
....................       errno=EDOM; 
....................    } 
....................    #endif 
....................    } 
.................... } 
.................... //Overloaded function for fmod() for PCD 
.................... // Overloaded function fmod() for data type - Float48 
.................... #if defined(__PCD__) 
.................... float48 fmod(float48 x,float48 y) 
.................... { 
....................    float48 i; 
....................    if (y!=0.0) 
....................    { 
....................       i=(x/y < 0.0)? ceil(x/y): floor(x/y); 
....................       return(x-(i*y)); 
....................    } 
....................    else 
....................    { 
....................    #ifdef _ERRNO 
....................    { 
....................       errno=EDOM; 
....................    } 
....................    #endif 
....................    } 
.................... } 
.................... // Overloaded function fmod() for data type - Float64 
.................... float64 fmod(float64 x,float64 y) 
.................... { 
....................    float64 i; 
....................    if (y!=0.0) 
....................    { 
....................       i=(x/y < 0.0)? ceil(x/y): floor(x/y); 
....................       return(x-(i*y)); 
....................    } 
....................    else 
....................    { 
....................    #ifdef _ERRNO 
....................    { 
....................       errno=EDOM; 
....................    } 
....................    #endif 
....................    } 
.................... } 
.................... #endif 
.................... //////////////////// Exponential and logarithmic functions //////////////////// 
.................... //////////////////////////////////////////////////////////////////////////// 
.................... //   float exp(float x) 
.................... //////////////////////////////////////////////////////////////////////////// 
.................... // Description : returns the value (e^x) 
.................... // Date : N/A 
.................... // 
.................... #define LN2 0.6931471805599453 
.................... #define LN2_INV 1.4426950408889634073 
....................  
.................... float const pe[6] = {0.000207455774, 0.00127100575, 0.00965065093, 
....................                      0.0554965651,  0.240227138,  0.693147172}; 
....................  
....................  
.................... float32 exp(float32 x) 
.................... { 
....................    float32 y, res, r; 
....................    #if defined(__PCD__) 
....................    int8 data1; 
....................    #endif 
....................    signed int8 n; 
....................    int1 s; 
....................    #ifdef _ERRNO 
....................    if(x > 88.722838) 
....................    { 
....................       errno=ERANGE; 
....................       return(0); 
....................    } 
....................    #endif 
....................    n = (signed int16)(x*LN2_INV); 
....................    s = 0; 
....................    y = x; 
....................  
....................    if (x < 0) 
....................    { 
....................       s = 1; 
....................       n = -n; 
....................       y = -y; 
....................    } 
....................  
....................    res = 0.0; 
.................... #if !defined(__PCD__) 
....................    *((unsigned int8 *)(&res)) = n + 0x7F; 
.................... #endif 
....................  
.................... #if defined(__PCD__)  // Takes care of IEEE format for PCD 
....................    data1 = n+0x7F; 
....................    if(bit_test(data1,0)) 
....................    bit_set(*(((unsigned int8 *)(&res)+2)),7); 
....................    rotate_right(&data1,1); 
....................    bit_clear(data1,7); 
....................    *(((unsigned int8 *)(&res)+3)) = data1; 
.................... #endif 
....................  
....................    y = y*LN2_INV - (float32)n; 
....................  
....................    r = pe[0]*y + pe[1]; 
....................    r = r*y + pe[2]; 
....................    r = r*y + pe[3]; 
....................    r = r*y + pe[4]; 
....................    r = r*y + pe[5]; 
....................  
....................    res = res*(1.0 + y*r); 
....................  
....................    if (s) 
....................       res = 1.0/res; 
....................    return(res); 
.................... } 
....................  
....................  
.................... //Overloaded function for exp() for PCD 
.................... // Overloaded function exp() for data type - Float48 
.................... #if defined(__PCD__) 
.................... float48 exp(float48 x) 
.................... { 
....................    float48 y, res, r; 
....................    int8 data1; 
....................    signed int8 n; 
....................    int1 s; 
....................    #ifdef _ERRNO 
....................    if(x > 88.722838) 
....................    { 
....................       errno=ERANGE; 
....................       return(0); 
....................    } 
....................    #endif 
....................    n = (signed int16)(x*LN2_INV); 
....................    s = 0; 
....................    y = x; 
....................  
....................    if (x < 0) 
....................    { 
....................       s = 1; 
....................       n = -n; 
....................       y = -y; 
....................    } 
....................  
....................    res = 0.0; 
....................  
....................    data1 = n+0x7F; 
....................    if(bit_test(data1,0)) 
....................    bit_set(*(((unsigned int8 *)(&res)+4)),7); 
....................    rotate_right(&data1,1); 
....................    bit_clear(data1,7); 
....................    *(((unsigned int8 *)(&res)+5)) = data1; 
....................  
....................    y = y*LN2_INV - (float48)n; 
....................  
....................    r = pe[0]*y + pe[1]; 
....................    r = r*y + pe[2]; 
....................    r = r*y + pe[3]; 
....................    r = r*y + pe[4]; 
....................    r = r*y + pe[5]; 
....................  
....................    res = res*(1.0 + y*r); 
....................  
....................    if (s) 
....................       res = 1.0/res; 
....................    return(res); 
.................... } 
....................  
.................... // Overloaded function exp() for data type - Float64 
.................... float64 const pe_64[12] ={9.30741400474913e-011,-4.28655416283316e-011, 
....................                           8.71486547014137e-009,9.84458531538385e-008, 
....................                           1.32588296983536e-006,1.52489283823016e-005, 
....................                           0.000154037598423921,0.00133335487036216, 
....................                           0.00961812936407326,0.0555041086222122, 
....................                           0.240226506962827,0.693147180559823}; 
....................  
.................... float64 exp(float64 x) 
.................... { 
....................    float64 y, res, r; 
....................    unsigned int16 data1, data2; 
....................    unsigned int16 *p; 
....................    signed int16 n; 
....................    int1 s; 
....................    #ifdef _ERRNO 
....................    if(x > 709.7827128) 
....................    { 
....................       errno=ERANGE; 
....................       return(0); 
....................    } 
....................    #endif 
....................    y = x*LN2_INV; 
....................    n = (signed int16)y; 
....................    s = 0; 
....................    y = x; 
....................  
....................    if (x < 0) 
....................    { 
....................       s = 1; 
....................       n = -n; 
....................       y = -y; 
....................    } 
....................  
....................    res = 0.0; 
....................  
.................... #if !defined(__PCD__) 
....................    *((unsigned int16 *)(&res)) = n + 0x7F; 
.................... #endif 
....................    p= (((unsigned int16 *)(&res))+3); 
....................    data1 = *p; 
....................    data2 = *p;    
....................    data1 = n + 0x3FF; 
....................    data1 = data1 <<4; 
....................    if(bit_test(data2,15)) 
....................    bit_set(data1,15); 
....................    data2 = data2 & 0x000F; 
....................    data1 ^= data2; 
....................  
....................    *(((unsigned int16 *)(&res)+3)) = data1; 
....................  
....................  
....................    y = y*LN2_INV - (float64)n; 
....................  
....................    r = pe_64[0]*y + pe_64[1]; 
....................    r = r*y + pe_64[2]; 
....................    r = r*y + pe_64[3]; 
....................    r = r*y + pe_64[4]; 
....................    r = r*y + pe_64[5]; 
....................    r = r*y + pe_64[6]; 
....................    r = r*y + pe_64[7]; 
....................    r = r*y + pe_64[8]; 
....................    r = r*y + pe_64[9]; 
....................    r = r*y + pe_64[10]; 
....................    r = r*y + pe_64[11]; 
....................     
....................    res = res*(1.0 + y*r); 
....................  
....................    if (s) 
....................       res = 1.0/res; 
....................    return(res); 
.................... } 
.................... #ENDIF 
....................  
....................  
.................... /************************************************************/ 
....................  
.................... float32 const pl[4] = {-1.080310025160955, 1.999999947089217}; 
.................... float32 const ql[4] = {0.091284365719509, -0.873491916557671}; 
....................  
.................... //////////////////////////////////////////////////////////////////////////// 
.................... //   float log(float x) 
.................... //////////////////////////////////////////////////////////////////////////// 
.................... // Description : returns the the natural log of x 
.................... // Date : N/A 
.................... // 
.................... float32 log(float32 x) 
.................... { 
....................    float32 y, res, r, y2; 
....................    #if defined(__PCD__) 
....................    unsigned int8  data1,data2; 
....................    #endif 
....................    signed int8 n; 
....................    #ifdef _ERRNO 
....................    if(x <0) 
....................    { 
....................       errno=EDOM; 
....................    } 
....................    if(x ==0) 
....................    { 
....................       errno=ERANGE; 
....................       return(0); 
....................    } 
....................    #endif 
....................    y = x; 
....................  
....................    if (y != 1.0) 
....................    { 
.................... #if !defined(__PCD__) 
....................     *((unsigned int8 *)(&y)) = 0x7E;  
.................... #endif 
....................  
.................... #if defined(__PCD__) // Takes care of IEEE format 
....................    data2 = *(((unsigned int8 *)(&y))+3); 
....................    *(((unsigned int8 *)(&y))+3) = 0x3F; 
....................    data1 = *(((unsigned int8 *)(&y))+2); 
....................    bit_clear(data1,7); 
....................    *(((unsigned int8 *)(&y))+2) = data1; 
....................    if(bit_test(data2,7)) 
....................      bit_set(*(((unsigned int8 *)(&y))+3),7); 
.................... #endif 
....................  
....................       y = (y - 1.0)/(y + 1.0); 
....................  
....................       y2=y*y; 
....................  
....................       res = pl[0]*y2 + pl[1]; 
....................  
....................       r = ql[0]*y2 + ql[1]; 
....................       r = r*y2 + 1.0; 
....................  
....................       res = y*res/r; 
.................... #if !defined(__PCD__) 
....................       n = *((unsigned int8 *)(&x)) - 0x7E; 
.................... #endif 
.................... #if defined(__PCD__)  
....................     data1 = *(((unsigned int8 *)(&x)+3)); 
....................     rotate_left(&data1,1); 
....................     data2 = *(((unsigned int8 *)(&x)+2)); 
....................     if(bit_test (data2,7)) 
....................       bit_set(data1,0); 
....................     n = data1 - 0x7E; 
.................... #endif 
....................  
....................       if (n<0)  
....................          r = -(float32)-n; 
....................       else 
....................          r = (float32)n; 
....................  
....................       res += r*LN2; 
....................    } 
....................  
....................    else 
....................       res = 0.0; 
....................  
....................    return(res); 
.................... } 
....................  
.................... //Overloaded function for log() for PCD 
.................... // Overloaded function log() for data type - Float48 
.................... #if defined(__PCD__) 
.................... // Overloaded function log() for data type - float64 
.................... float64 const pl_64[4] = {-0.145694052150681, 1.365485300000370, 
....................                           -3.120535668274329, 2.000000000000000}; 
....................  
.................... float64 const ql_64[4] = {0.006047500465908, -0.208298281937234, 
....................                           1.113943039156721, -1.893601167470470}; 
....................  
.................... float48 log(float48 x) 
.................... { 
....................    float48 y, res, r, y2; 
....................    unsigned int8  data1,data2; 
....................    signed int8 n; 
.................... #ifdef _ERRNO 
....................    if(x <0) 
....................    { 
....................       errno=EDOM; 
....................    } 
....................    if(x ==0) 
....................    { 
....................       errno=ERANGE; 
....................       return(0); 
....................    } 
.................... #endif 
....................    y = x; 
....................  
....................    if (y != 1.0) 
....................    { 
....................  
.................... #if !defined(__PCD__) 
....................       *((unsigned int8 *)(&y)) = 0x7E;  
.................... #endif 
....................       data2 = *(((unsigned int8 *)(&y))+5); 
....................       *(((unsigned int8 *)(&y))+5) = 0x3F; 
....................       data1 = *(((unsigned int8 *)(&y))+4); 
....................       bit_clear(data1,7); 
....................       *(((unsigned int8 *)(&y))+4) = data1; 
....................  
....................       if(bit_test(data2,7)) 
....................       bit_set(*(((unsigned int8 *)(&y))+4),7); 
....................       y = (y - 1.0)/(y + 1.0); 
....................  
....................       y2=y*y; 
....................  
....................       res = pl_64[0]*y2 + pl_64[1]; 
....................       res = res*y2 + pl_64[2]; 
....................       res = res*y2 + pl_64[3]; 
....................  
....................       r = ql_64[0]*y2 + ql_64[1]; 
....................       r = r*y2 + ql_64[2]; 
....................       r = r*y2 + ql_64[3]; 
....................       r = r*y2 + 1.0;  
....................       res = y*res/r; 
....................  
....................       data1 = *(((unsigned int8 *)(&x)+5)); 
....................       rotate_left(&data1,1); 
....................       data2 = *(((unsigned int8 *)(&x)+4)); 
....................       if(bit_test (data2,7)) 
....................       bit_set(data1,0); 
....................        
....................       n = data1 - 0x7E; 
....................  
....................       if (n<0) 
....................       r = -(float48)-n; 
....................       else 
....................       r = (float48)n; 
....................  
....................       res += r*LN2; 
....................    } 
....................  
....................    else 
....................    res = 0.0; 
....................  
....................    return(res); 
.................... } 
....................  
.................... float64 log(float64 x) 
.................... { 
....................    float64 y, res, r, y2; 
....................    unsigned int16  data1,data2; 
....................    unsigned int16 *p; 
....................    signed int16 n; 
....................    #ifdef _ERRNO 
....................    if(x <0) 
....................    { 
....................       errno=EDOM; 
....................    } 
....................    if(x ==0) 
....................    { 
....................       errno=ERANGE; 
....................       return(0); 
....................    } 
....................    #endif 
....................    y = x; 
....................  
....................    if (y != 1.0) 
....................    { 
....................    #if !defined(__PCD__) 
....................        *((unsigned int8 *)(&y)) = 0x7E;  
....................    #endif 
....................       p= (((unsigned int16 *)(&y))+3); 
....................       data1 = *p; 
....................       data2 = *p; 
....................       data1 = 0x3FE; 
....................       data1 = data1 <<4; 
....................       if(bit_test (data2,15)) 
....................          bit_set(data1,15); 
....................       data2 = data2 & 0x000F; 
....................       data1 ^=data2; 
....................  
....................       *p = data1; 
....................  
....................       y = (y - 1.0)/(y + 1.0); 
....................  
....................       y2=y*y; 
....................  
....................       res = pl_64[0]*y2 + pl_64[1]; 
....................       res = res*y2 + pl_64[2]; 
....................       res = res*y2 + pl_64[3]; 
....................  
....................       r = ql_64[0]*y2 + ql_64[1]; 
....................       r = r*y2 + ql_64[2]; 
....................       r = r*y2 + ql_64[3]; 
....................       r = r*y2 + 1.0; 
....................  
....................       res = y*res/r; 
....................   
....................       p= (((unsigned int16 *)(&x))+3); 
....................       data1 = *p; 
....................       bit_clear(data1,15); 
....................       data1 = data1 >>4;     
....................       n = data1 - 0x3FE; 
....................  
....................  
....................       if (n<0) 
....................          r = -(float64)-n; 
....................       else 
....................          r = (float64)n; 
....................  
....................       res += r*LN2; 
....................    } 
....................  
....................    else 
....................       res = 0.0; 
....................  
....................    return(res); 
.................... } 
.................... #endif 
....................  
....................  
.................... #define LN10 2.3025850929940456 
.................... #define LN10_INV 0.4342944819032518276 
....................  
.................... //////////////////////////////////////////////////////////////////////////// 
.................... //   float log10(float x) 
.................... //////////////////////////////////////////////////////////////////////////// 
.................... // Description : returns the the log base 10 of x 
.................... // Date : N/A 
.................... // 
.................... float32 log10(float32 x) 
.................... { 
....................    float32 r; 
....................  
....................    r = log(x); 
....................    r = r*LN10_INV; 
....................    return(r); 
.................... } 
....................  
.................... //Overloaded functions for log10() for PCD 
.................... // Overloaded function log10() for data type - Float48 
.................... #if defined(__PCD__) 
.................... float48 log10(float48 x) 
.................... { 
....................    float48 r; 
....................  
....................    r = log(x); 
....................    r = r*LN10_INV; 
....................    return(r); 
.................... } 
....................  
.................... // Overloaded function log10() for data type - Float64 
.................... float64 log10(float64 x) 
.................... { 
....................    float64 r; 
....................  
....................    r = log(x); 
....................    r = r*LN10_INV; 
....................    return(r); 
.................... } 
.................... #endif 
.................... //////////////////////////////////////////////////////////////////////////// 
.................... //   float modf(float x) 
.................... //////////////////////////////////////////////////////////////////////////// 
.................... // Description :breaks the argument value int integral and fractional parts, 
.................... // ach of which have the same sign as the argument.  It stores the integral part 
.................... // as a float in the object pointed to by the iptr 
.................... // Returns : returns the signed fractional part of value. 
.................... // Date : N/A 
.................... // 
....................  
.................... float32 modf(float32 value,float32 *iptr) 
.................... { 
....................    *iptr=(value < 0.0)? ceil(value): floor(value); 
....................    return(value - *iptr); 
.................... } 
.................... //Overloaded functions for modf() for PCD 
.................... // Overloaded function modf() for data type - Float48 
.................... #if defined(__PCD__) 
.................... float48 modf(float48 value,float48 *iptr) 
.................... { 
....................    *iptr=(value < 0.0)? ceil(value): floor(value); 
....................    return(value - *iptr); 
.................... } 
.................... // Overloaded function modf() for data type - Float64 
.................... float64 modf(float64 value,float64 *iptr) 
.................... { 
....................    *iptr=(value < 0.0)? ceil(value): floor(value); 
....................    return(value - *iptr); 
.................... } 
.................... #endif 
....................  
.................... //////////////////////////////////////////////////////////////////////////// 
.................... //   float pwr(float x,float y) 
.................... //////////////////////////////////////////////////////////////////////////// 
.................... // Description : returns the value (x^y) 
.................... // Date : N/A 
.................... // Note : 0 is returned when the function will generate an imaginary number 
.................... // 
.................... float32 pwr(float32 x,float32 y) 
.................... { 
....................    if(0 > x && fmod(y, 1) == 0) { 
....................       if(fmod(y, 2) == 0) { 
....................          return (exp(log(-x) * y)); 
....................       } else { 
....................          return (-exp(log(-x) * y)); 
....................       } 
....................    } else if(0 > x && fmod(y, 1) != 0) { 
....................       return 0; 
....................    } else { 
....................       if(x != 0 || 0 >= y) { 
....................          return (exp(log(x) * y)); 
....................       } 
....................    } 
.................... } 
.................... //Overloaded functions for pwr() for PCD 
.................... // Overloaded function pwr() for data type - Float48 
.................... #if defined(__PCD__) 
.................... float48 pwr(float48 x,float48 y) 
.................... { 
....................    if(0 > x && fmod(y, 1) == 0) { 
....................       if(fmod(y, 2) == 0) { 
....................          return (exp(log(-x) * y)); 
....................       } else { 
....................          return (-exp(log(-x) * y)); 
....................       } 
....................    } else if(0 > x && fmod(y, 1) != 0) { 
....................       return 0; 
....................    } else { 
....................       if(x != 0 || 0 >= y) { 
....................          return (exp(log(x) * y)); 
....................       } 
....................    } 
.................... } 
.................... // Overloaded function pwr() for data type - Float64 
.................... float64 pwr(float64 x,float64 y) 
.................... { 
....................    if(0 > x && fmod(y, 1) == 0) { 
....................       if(fmod(y, 2) == 0) { 
....................          return (exp(log(-x) * y)); 
....................       } else { 
....................          return (-exp(log(-x) * y)); 
....................       } 
....................    } else if(0 > x && fmod(y, 1) != 0) { 
....................       return 0; 
....................    } else { 
....................       if(x != 0 || 0 >= y) { 
....................          return (exp(log(x) * y)); 
....................       } 
....................    } 
.................... } 
.................... #endif 
....................  
.................... //////////////////// Power functions //////////////////// 
....................  
.................... //////////////////////////////////////////////////////////////////////////// 
.................... //   float pow(float x,float y) 
.................... //////////////////////////////////////////////////////////////////////////// 
.................... // Description : returns the value (x^y) 
.................... // Date : N/A 
.................... // Note : 0 is returned when the function will generate an imaginary number 
.................... // 
.................... float32 pow(float32 x,float32 y) 
.................... { 
....................    if(0 > x && fmod(y, 1) == 0) { 
....................       if(fmod(y, 2) == 0) { 
....................          return (exp(log(-x) * y)); 
....................       } else { 
....................          return (-exp(log(-x) * y)); 
....................       } 
....................    } else if(0 > x && fmod(y, 1) != 0) { 
....................       return 0; 
....................    } else { 
....................       if(x != 0 || 0 >= y) { 
....................          return (exp(log(x) * y)); 
....................       } 
....................    } 
.................... } 
.................... //Overloaded functions for pow() for PCD 
.................... // Overloaded function for pow() data type - Float48 
.................... #if defined(__PCD__) 
.................... float48 pow(float48 x,float48 y) 
.................... { 
....................    if(0 > x && fmod(y, 1) == 0) { 
....................       if(fmod(y, 2) == 0) { 
....................          return (exp(log(-x) * y)); 
....................       } else { 
....................          return (-exp(log(-x) * y)); 
....................       } 
....................    } else if(0 > x && fmod(y, 1) != 0) { 
....................       return 0; 
....................    } else { 
....................       if(x != 0 || 0 >= y) { 
....................          return (exp(log(x) * y)); 
....................       } 
....................    } 
.................... } 
....................  
.................... // Overloaded function pow() for data type - Float64 
.................... float64 pow(float64 x,float64 y) 
.................... { 
....................    if(0 > x && fmod(y, 1) == 0) { 
....................       if(fmod(y, 2) == 0) { 
....................          return (exp(log(-x) * y)); 
....................       } else { 
....................          return (-exp(log(-x) * y)); 
....................       } 
....................    } else if(0 > x && fmod(y, 1) != 0) { 
....................       return 0; 
....................    } else { 
....................       if(x != 0 || 0 >= y) { 
....................          return (exp(log(x) * y)); 
....................       } 
....................    } 
.................... } 
.................... #endif 
....................  
.................... //////////////////////////////////////////////////////////////////////////// 
.................... //   float sqrt(float x) 
.................... //////////////////////////////////////////////////////////////////////////// 
.................... // Description : returns the square root of x 
.................... // Date : N/A 
.................... // 
.................... float32 sqrt(float32 x) 
.................... { 
....................    float32 y, res; 
....................    #if defined(__PCD__) 
....................    unsigned int16 data1,data2; 
....................    #endif 
....................    unsigned int8 *p; 
....................  
....................    #ifdef _ERRNO 
....................    if(x < 0) 
....................    { 
....................       errno=EDOM; 
....................    } 
....................    #endif 
....................  
....................    if( x<=0.0) 
*
08D2:  MOVFF  5E,7E
08D6:  MOVFF  5D,7D
08DA:  MOVFF  5C,7C
08DE:  MOVFF  5B,7B
08E2:  CLRF   x82
08E4:  CLRF   x81
08E6:  CLRF   x80
08E8:  CLRF   x7F
08EA:  RCALL  085C
08EC:  BC    08F0
08EE:  BNZ   08FA
....................       return(0.0); 
08F0:  CLRF   00
08F2:  CLRF   01
08F4:  CLRF   02
08F6:  CLRF   03
08F8:  BRA    09DA
....................  
....................    y=x; 
08FA:  MOVFF  5E,62
08FE:  MOVFF  5D,61
0902:  MOVFF  5C,60
0906:  MOVFF  5B,5F
....................     
....................    #if !defined(__PCD__) 
....................     p=&y; 
090A:  CLRF   x68
090C:  MOVLW  5F
090E:  MOVWF  x67
....................    (*p)=(unsigned int8)((((unsigned int16)(*p)) + 127) >> 1); 
0910:  MOVFF  67,FE9
0914:  MOVFF  68,FEA
0918:  MOVF   FEF,W
091A:  CLRF   x6C
091C:  MOVWF  x6B
091E:  MOVLW  7F
0920:  ADDWF  x6B,F
0922:  MOVLW  00
0924:  ADDWFC x6C,F
0926:  BCF    FD8.0
0928:  RRCF   x6C,W
092A:  RRCF   x6B,W
092C:  MOVFF  68,FEA
0930:  MOVFF  67,FE9
0934:  MOVWF  FEF
....................    #endif 
....................     
....................    #if defined(__PCD__) 
....................     p = (((unsigned int8 *)(&y))+3); 
....................     data1 = *(((unsigned int8 *)(&y))+3); 
....................     data2 = *(((unsigned int8 *)(&y))+2); 
....................     rotate_left(&data1,1);     
....................     if(bit_test(data2,7))     
....................        bit_set(data1,0);     
....................     data1 = ((data1+127) >>1); 
....................     bit_clear(data2,7); 
....................     if(bit_test(data1,0)) 
....................        bit_set(data2,7); 
....................     data1 = data1 >>1; 
....................     *(((unsigned int8 *)(&y))+3) = data1; 
....................     *(((unsigned int8 *)(&y))+2) = data2; 
....................      
....................   #endif 
....................  
....................    do { 
....................       res=y; 
0936:  MOVFF  62,66
093A:  MOVFF  61,65
093E:  MOVFF  60,64
0942:  MOVFF  5F,63
....................       y+=(x/y); 
0946:  MOVFF  5E,62
094A:  MOVFF  5D,61
094E:  MOVFF  5C,60
0952:  MOVFF  5B,5F
0956:  MOVFF  62,66
095A:  MOVFF  61,65
095E:  MOVFF  60,64
0962:  MOVFF  5F,63
0966:  RCALL  0498
0968:  BCF    FD8.1
096A:  MOVFF  62,82
096E:  MOVFF  61,81
0972:  MOVFF  60,80
0976:  MOVFF  5F,7F
097A:  MOVFF  03,86
097E:  MOVFF  02,85
0982:  MOVFF  01,84
0986:  MOVFF  00,83
098A:  RCALL  05F2
098C:  MOVFF  03,62
0990:  MOVFF  02,61
0994:  MOVFF  01,60
0998:  MOVFF  00,5F
....................  
....................       #if !defined(__PCD__) 
....................      (*p)--; 
099C:  MOVFF  67,FE9
09A0:  MOVFF  68,FEA
09A4:  DECF   FEF,F
....................    #endif 
....................     
....................    #if defined(__PCD__) 
....................     data1 = *(((unsigned int8 *)(&y))+3); 
....................     data2 = *(((unsigned int8 *)(&y))+2); 
....................     rotate_left(&data1,1); 
....................     if(bit_test(data2,7)) 
....................        bit_set(data1,0);     
....................     data1--; 
....................     bit_clear(data2,7); 
....................     if(bit_test(data1,0)) 
....................        bit_set(data2,7); 
....................     data1 = data1 >>1; 
....................     *(((unsigned int8 *)(&y))+3) = data1; 
....................     *(((unsigned int8 *)(&y))+2) = data2; 
....................      
....................   #endif 
....................    } while(res != y); 
09A6:  MOVFF  66,7E
09AA:  MOVFF  65,7D
09AE:  MOVFF  64,7C
09B2:  MOVFF  63,7B
09B6:  MOVFF  62,82
09BA:  MOVFF  61,81
09BE:  MOVFF  60,80
09C2:  MOVFF  5F,7F
09C6:  RCALL  085C
09C8:  BNZ   0936
....................  
....................    return(res); 
09CA:  MOVFF  63,00
09CE:  MOVFF  64,01
09D2:  MOVFF  65,02
09D6:  MOVFF  66,03
09DA:  RETURN 0
.................... } 
.................... //Overloaded functions for sqrt() for PCD 
.................... // Overloaded function sqrt() for data type - Float48 
.................... #if defined(__PCD__) 
.................... float48 sqrt(float48 x) 
.................... { 
....................    float48 y, res; 
....................    unsigned int16 data1,data2; 
....................    unsigned int8 *p; 
....................  
....................    #ifdef _ERRNO 
....................    if(x < 0) 
....................    { 
....................       errno=EDOM; 
....................    } 
....................    #endif 
....................  
....................    if( x<=0.0) 
....................       return(0.0); 
....................  
....................    y=x; 
....................     
....................    #if !defined(__PCD__) 
....................     p=&y; 
....................    (*p)=(unsigned int8)((((unsigned int16)(*p)) + 127) >> 1); 
....................    #endif 
....................     
....................    #if defined(__PCD__) 
....................     p = (((unsigned int8 *)(&y))+5); 
....................     data1 = *(((unsigned int8 *)(&y))+5); 
....................     data2 = *(((unsigned int8 *)(&y))+4); 
....................     rotate_left(&data1,1); 
....................     if(bit_test(data2,7)) 
....................        bit_set(data1,0);     
....................     data1 = ((data1+127) >>1); 
....................     bit_clear(data2,7); 
....................     if(bit_test(data1,0)) 
....................        bit_set(data2,7); 
....................     data1 = data1 >>1; 
....................     *(((unsigned int8 *)(&y))+5) = data1; 
....................     *(((unsigned int8 *)(&y))+4) = data2; 
....................      
....................   #endif 
....................  
....................    do { 
....................       res=y; 
....................       y+=(x/y); 
....................  
....................       #if !defined(__PCD__) 
....................      (*p)--; 
....................    #endif 
....................     
....................     data1 = *(((unsigned int8 *)(&y))+5); 
....................     data2 = *(((unsigned int8 *)(&y))+4); 
....................     rotate_left(&data1,1); 
....................     if(bit_test(data2,7)) 
....................        bit_set(data1,0);     
....................     data1--; 
....................     bit_clear(data2,7); 
....................     if(bit_test(data1,0)) 
....................        bit_set(data2,7); 
....................     data1 = data1 >>1; 
....................     *(((unsigned int8 *)(&y))+5) = data1; 
....................     *(((unsigned int8 *)(&y))+4) = data2; 
....................      
....................    } while(res != y); 
....................  
....................    return(res); 
.................... } 
....................  
.................... // Overloaded function sqrt() for data type - Float64 
.................... float64 sqrt(float64 x) 
.................... { 
....................    float64 y, res; 
....................    unsigned int16 *p; 
....................    unsigned int16 temp1,temp2; 
....................  
....................    #ifdef _ERRNO 
....................    if(x < 0) 
....................    { 
....................       errno=EDOM; 
....................    } 
....................    #endif 
....................  
....................    if( x<=0.0) 
....................       return(0.0); 
....................  
....................    y=x; 
....................    p= (((unsigned int16 *)(&y))+3); 
....................    temp1 = *p; 
....................    temp2 = *p; 
....................    bit_clear(temp1,15); 
....................    temp1 = (temp1>>4)+1023; 
....................    temp1 = temp1 >> 1; 
....................    temp1 = (temp1<<4) & 0xFFF0; 
....................    if(bit_test(temp2,15)) 
....................       bit_set(temp1,15); 
....................    temp2 = temp2 & 0x000F; 
....................    temp1 ^= temp2; 
....................     
....................    (*p) = temp1; 
....................     
....................    do { 
....................       res=y; 
....................       y+=(x/y); 
....................      temp1 = *p; 
....................      temp2 = *p; 
....................      bit_clear(temp1,15); 
....................      temp1 = (temp1>>4); 
....................      temp1--; 
....................      temp1 = (temp1<<4) & 0xFFF0; 
....................      if(bit_test(temp2,15)) 
....................         bit_set(temp1,15); 
....................      temp2 = temp2 & 0x000F; 
....................      temp1 ^= temp2; 
....................      (*p) = temp1; 
....................  
....................    } while(res != y); 
....................  
....................    return(res); 
.................... } 
.................... #endif 
....................  
.................... ////////////////////////////// Trig Functions ////////////////////////////// 
.................... #ifdef PI_DIV_BY_TWO_INV 
.................... #undef PI_DIV_BY_TWO_INV 
.................... #endif 
.................... #define PI_DIV_BY_TWO_INV 0.63661977236758134 
.................... #ifdef PI_DIV_BY_TWO 
.................... #undef PI_DIV_BY_TWO 
.................... #endif 
.................... #define PI_DIV_BY_TWO   1.5707963267948966 
.................... #ifdef TWOBYPI 
.................... #undef TWOBYPI 
.................... #endif 
.................... #define TWOBYPI          0.6366197723675813 
....................  
.................... //////////////////////////////////////////////////////////////////////////// 
.................... //   float cos(float x) 
.................... //////////////////////////////////////////////////////////////////////////// 
.................... // Description : returns the cosine value of the angle x, which is in radian 
.................... // Date : 9/20/2001 
.................... // 
.................... float32 cos(float32 x) 
*
0A16:  CLRF   x86
0A18:  CLRF   x85
0A1A:  CLRF   x84
0A1C:  MOVLW  7F
0A1E:  MOVWF  x83
.................... { 
....................    float32 y, t, t2 = 1.0; 
....................    unsigned int8 quad, i; 
....................    float32 frac; 
....................    float32 p[5] = {                    //by the series definition for cosine 
....................       -0.49999999456337096,            // sum ( ( (-1)^n * x^2n )/(2n)! ) 
....................        0.04166663896921267, 
....................       -0.00138883894522527, 
....................        0.00002476138231734, 
....................       -0.00000026070414770 
....................       //-0.00000000001147, 
....................       // 0.00000000000005 
....................    }; 
0A20:  MOVLW  7E
0A22:  MOVWF  x8D
0A24:  MOVLW  80
0A26:  MOVWF  x8E
0A28:  CLRF   x8F
0A2A:  CLRF   x90
0A2C:  MOVLW  7A
0A2E:  MOVWF  x91
0A30:  MOVLW  2A
0A32:  MOVWF  x92
0A34:  MOVLW  AA
0A36:  MOVWF  x93
0A38:  MOVLW  A3
0A3A:  MOVWF  x94
0A3C:  MOVLW  75
0A3E:  MOVWF  x95
0A40:  MOVLW  B6
0A42:  MOVWF  x96
0A44:  MOVLW  09
0A46:  MOVWF  x97
0A48:  MOVLW  B4
0A4A:  MOVWF  x98
0A4C:  MOVLW  6F
0A4E:  MOVWF  x99
0A50:  MOVLW  4F
0A52:  MOVWF  x9A
0A54:  MOVLW  B6
0A56:  MOVWF  x9B
0A58:  MOVLW  AA
0A5A:  MOVWF  x9C
0A5C:  MOVLW  69
0A5E:  MOVWF  x9D
0A60:  MOVLW  8B
0A62:  MOVWF  x9E
0A64:  MOVLW  F6
0A66:  MOVWF  x9F
0A68:  MOVLW  E8
0A6A:  MOVWF  xA0
....................  
....................    if (x < 0) x = -x;                  // absolute value of input 
0A6C:  MOVFF  7A,7E
0A70:  MOVFF  79,7D
0A74:  MOVFF  78,7C
0A78:  MOVFF  77,7B
0A7C:  CLRF   x82
0A7E:  CLRF   x81
0A80:  CLRF   x80
0A82:  CLRF   x7F
0A84:  RCALL  085C
0A86:  BNC   0A8E
0A88:  MOVF   x78,W
0A8A:  XORLW  80
0A8C:  MOVWF  x78
....................  
....................    quad = (unsigned int8)(x * PI_DIV_BY_TWO_INV);    // quadrant 
0A8E:  MOVFF  7A,82
0A92:  MOVFF  79,81
0A96:  MOVFF  78,80
0A9A:  MOVFF  77,7F
0A9E:  MOVLW  83
0AA0:  MOVWF  x86
0AA2:  MOVLW  F9
0AA4:  MOVWF  x85
0AA6:  MOVLW  22
0AA8:  MOVWF  x84
0AAA:  MOVLW  7E
0AAC:  MOVWF  x83
0AAE:  RCALL  03A6
0AB0:  MOVFF  03,7E
0AB4:  MOVFF  02,7D
0AB8:  MOVFF  01,7C
0ABC:  MOVFF  00,7B
0AC0:  BRA    09DC
0AC2:  MOVFF  01,87
....................    frac = (x * PI_DIV_BY_TWO_INV) - quad;  // fractional part of input 
0AC6:  MOVFF  7A,82
0ACA:  MOVFF  79,81
0ACE:  MOVFF  78,80
0AD2:  MOVFF  77,7F
0AD6:  MOVLW  83
0AD8:  MOVWF  x86
0ADA:  MOVLW  F9
0ADC:  MOVWF  x85
0ADE:  MOVLW  22
0AE0:  MOVWF  x84
0AE2:  MOVLW  7E
0AE4:  MOVWF  x83
0AE6:  RCALL  03A6
0AE8:  MOVFF  03,A4
0AEC:  MOVFF  02,A3
0AF0:  MOVFF  01,A2
0AF4:  MOVFF  00,A1
0AF8:  CLRF   x80
0AFA:  MOVFF  87,7F
0AFE:  RCALL  0370
0B00:  BSF    FD8.1
0B02:  MOVFF  A4,82
0B06:  MOVFF  A3,81
0B0A:  MOVFF  A2,80
0B0E:  MOVFF  A1,7F
0B12:  MOVFF  03,86
0B16:  MOVFF  02,85
0B1A:  MOVFF  01,84
0B1E:  MOVFF  00,83
0B22:  RCALL  05F2
0B24:  MOVFF  03,8C
0B28:  MOVFF  02,8B
0B2C:  MOVFF  01,8A
0B30:  MOVFF  00,89
....................    quad = quad % 4;                    // quadrant (0 to 3) 
0B34:  MOVLW  03
0B36:  ANDWF  x87,F
....................  
....................    if (quad == 0 || quad == 2) 
0B38:  MOVF   x87,F
0B3A:  BZ    0B42
0B3C:  MOVF   x87,W
0B3E:  SUBLW  02
0B40:  BNZ   0B76
....................       t = frac * PI_DIV_BY_TWO; 
0B42:  MOVFF  8C,82
0B46:  MOVFF  8B,81
0B4A:  MOVFF  8A,80
0B4E:  MOVFF  89,7F
0B52:  MOVLW  DB
0B54:  MOVWF  x86
0B56:  MOVLW  0F
0B58:  MOVWF  x85
0B5A:  MOVLW  49
0B5C:  MOVWF  x84
0B5E:  MOVLW  7F
0B60:  MOVWF  x83
0B62:  RCALL  03A6
0B64:  MOVFF  03,82
0B68:  MOVFF  02,81
0B6C:  MOVFF  01,80
0B70:  MOVFF  00,7F
0B74:  BRA    0C40
....................    else if (quad == 1) 
0B76:  DECFSZ x87,W
0B78:  BRA    0BDE
....................       t = (1-frac) * PI_DIV_BY_TWO; 
0B7A:  BSF    FD8.1
0B7C:  CLRF   x82
0B7E:  CLRF   x81
0B80:  CLRF   x80
0B82:  MOVLW  7F
0B84:  MOVWF  x7F
0B86:  MOVFF  8C,86
0B8A:  MOVFF  8B,85
0B8E:  MOVFF  8A,84
0B92:  MOVFF  89,83
0B96:  RCALL  05F2
0B98:  MOVFF  03,A4
0B9C:  MOVFF  02,A3
0BA0:  MOVFF  01,A2
0BA4:  MOVFF  00,A1
0BA8:  MOVFF  03,82
0BAC:  MOVFF  02,81
0BB0:  MOVFF  01,80
0BB4:  MOVFF  00,7F
0BB8:  MOVLW  DB
0BBA:  MOVWF  x86
0BBC:  MOVLW  0F
0BBE:  MOVWF  x85
0BC0:  MOVLW  49
0BC2:  MOVWF  x84
0BC4:  MOVLW  7F
0BC6:  MOVWF  x83
0BC8:  CALL   03A6
0BCC:  MOVFF  03,82
0BD0:  MOVFF  02,81
0BD4:  MOVFF  01,80
0BD8:  MOVFF  00,7F
0BDC:  BRA    0C40
....................    else // should be 3 
....................       t = (frac-1) * PI_DIV_BY_TWO; 
0BDE:  BSF    FD8.1
0BE0:  MOVFF  8C,82
0BE4:  MOVFF  8B,81
0BE8:  MOVFF  8A,80
0BEC:  MOVFF  89,7F
0BF0:  CLRF   x86
0BF2:  CLRF   x85
0BF4:  CLRF   x84
0BF6:  MOVLW  7F
0BF8:  MOVWF  x83
0BFA:  RCALL  05F2
0BFC:  MOVFF  03,A4
0C00:  MOVFF  02,A3
0C04:  MOVFF  01,A2
0C08:  MOVFF  00,A1
0C0C:  MOVFF  03,82
0C10:  MOVFF  02,81
0C14:  MOVFF  01,80
0C18:  MOVFF  00,7F
0C1C:  MOVLW  DB
0C1E:  MOVWF  x86
0C20:  MOVLW  0F
0C22:  MOVWF  x85
0C24:  MOVLW  49
0C26:  MOVWF  x84
0C28:  MOVLW  7F
0C2A:  MOVWF  x83
0C2C:  CALL   03A6
0C30:  MOVFF  03,82
0C34:  MOVFF  02,81
0C38:  MOVFF  01,80
0C3C:  MOVFF  00,7F
....................  
....................    y = 1.0; 
0C40:  CLRF   x7E
0C42:  CLRF   x7D
0C44:  CLRF   x7C
0C46:  MOVLW  7F
0C48:  MOVWF  x7B
....................    t = t * t; 
0C4A:  MOVFF  82,86
0C4E:  MOVFF  81,85
0C52:  MOVFF  80,84
0C56:  MOVFF  7F,83
0C5A:  CALL   03A6
0C5E:  MOVFF  03,82
0C62:  MOVFF  02,81
0C66:  MOVFF  01,80
0C6A:  MOVFF  00,7F
....................    for (i = 0; i <= 4; i++) 
0C6E:  CLRF   x88
0C70:  MOVF   x88,W
0C72:  SUBLW  04
0C74:  BNC   0D18
....................    { 
....................       t2 = t2 * t; 
0C76:  MOVFF  86,82
0C7A:  MOVFF  85,81
0C7E:  MOVFF  84,80
0C82:  MOVFF  83,7F
0C86:  MOVFF  82,86
0C8A:  MOVFF  81,85
0C8E:  MOVFF  80,84
0C92:  MOVFF  7F,83
0C96:  CALL   03A6
0C9A:  MOVFF  03,86
0C9E:  MOVFF  02,85
0CA2:  MOVFF  01,84
0CA6:  MOVFF  00,83
....................       y = y + p[i] * t2; 
0CAA:  MOVF   x88,W
0CAC:  MULLW  04
0CAE:  MOVF   FF3,W
0CB0:  CLRF   03
0CB2:  ADDLW  8D
0CB4:  MOVWF  FE9
0CB6:  MOVLW  00
0CB8:  ADDWFC 03,W
0CBA:  MOVWF  FEA
0CBC:  MOVFF  FEF,7F
0CC0:  MOVFF  FEC,80
0CC4:  MOVFF  FEC,81
0CC8:  MOVFF  FEC,82
0CCC:  CALL   03A6
0CD0:  MOVFF  FEA,A2
0CD4:  MOVFF  FE9,A1
0CD8:  BCF    FD8.1
0CDA:  MOVFF  7E,82
0CDE:  MOVFF  7D,81
0CE2:  MOVFF  7C,80
0CE6:  MOVFF  7B,7F
0CEA:  MOVFF  03,86
0CEE:  MOVFF  02,85
0CF2:  MOVFF  01,84
0CF6:  MOVFF  00,83
0CFA:  RCALL  05F2
0CFC:  MOVFF  A2,FEA
0D00:  MOVFF  A1,FE9
0D04:  MOVFF  03,7E
0D08:  MOVFF  02,7D
0D0C:  MOVFF  01,7C
0D10:  MOVFF  00,7B
0D14:  INCF   x88,F
0D16:  BRA    0C70
....................    } 
....................  
....................    if (quad == 2 || quad == 1) 
0D18:  MOVF   x87,W
0D1A:  SUBLW  02
0D1C:  BZ    0D22
0D1E:  DECFSZ x87,W
0D20:  BRA    0D28
....................       y = -y;  // correct sign 
0D22:  MOVF   x7C,W
0D24:  XORLW  80
0D26:  MOVWF  x7C
....................  
....................    return (y); 
0D28:  MOVFF  7B,00
0D2C:  MOVFF  7C,01
0D30:  MOVFF  7D,02
0D34:  MOVFF  7E,03
0D38:  GOTO   13F0 (RETURN)
.................... } 
....................  
....................  
.................... //Overloaded functions for cos() for PCD 
.................... // Overloaded function cos() for data type - Float48 
.................... #if defined(__PCD__) 
.................... float48 cos(float48 x) 
.................... { 
....................    float48 y, t, t2 = 1.0; 
....................    unsigned int8 quad, i; 
....................    float48 frac; 
....................    float48 p[6] = {                    //by the series definition for cosine 
....................       -0.5,                            // sum ( ( (-1)^n * x^2n )/(2n)! ) 
....................        0.04166666666667, 
....................       -0.00138888888889, 
....................        0.00002480158730, 
....................       -0.00000027557319, 
....................        0.00000000208767 
....................    }; 
....................  
....................    if (x < 0) x = -x;                  // absolute value of input 
....................  
....................    quad = (unsigned int8)(x * PI_DIV_BY_TWO_INV);    // quadrant 
....................    frac = (x * PI_DIV_BY_TWO_INV) - quad;  // fractional part of input 
....................    quad = quad % 4;                    // quadrant (0 to 3) 
....................  
....................    if (quad == 0 || quad == 2) 
....................       t = frac * PI_DIV_BY_TWO; 
....................    else if (quad == 1) 
....................       t = (1-frac) * PI_DIV_BY_TWO; 
....................    else // should be 3 
....................       t = (frac-1) * PI_DIV_BY_TWO; 
....................  
....................    y = 0.999999999781; 
....................    t = t * t; 
....................    for (i = 0; i <= 5; i++) 
....................    { 
....................       t2 = t2 * t; 
....................       y = y + p[i] * t2; 
....................    } 
....................  
....................    if (quad == 2 || quad == 1) 
....................       y = -y;  // correct sign 
....................  
....................    return (y); 
.................... } 
....................  
.................... // Overloaded function cos() for data type - Float64 
.................... float64 cos(float64 x) 
.................... { 
....................    float64 y, t, t2 = 1.0; 
....................    unsigned int8 quad, i; 
....................    float64 frac; 
....................    float64 p_64[9] = {               //by the series definition for cosine 
....................      -0.49999999999998740,           // sum ( ( (-1)^n * x^2n )/(2n)! )              
....................       0.04166666666656518, 
....................      -0.00138888888851691, 
....................       0.00002480158658490, 
....................      -0.00000027557239796, 
....................       0.00000000208715031, 
....................      -0.00000000001126577, 
....................       0.00000000000000427, 
....................       0.00000000000000372}; 
....................  
....................    if (x < 0) x = -x;                  // absolute value of input 
....................  
....................    quad = (unsigned int8)(x * PI_DIV_BY_TWO_INV);    // quadrant 
....................    frac = (x * PI_DIV_BY_TWO_INV) - quad;  // fractional part of input 
....................    quad = quad % 4;                    // quadrant (0 to 3) 
....................  
....................    if (quad == 0 || quad == 2) 
....................       t = frac * PI_DIV_BY_TWO; 
....................    else if (quad == 1) 
....................       t = (1-frac) * PI_DIV_BY_TWO; 
....................    else // should be 3 
....................       t = (frac-1) * PI_DIV_BY_TWO; 
....................  
....................    y = 1.0; 
....................    t = t * t; 
....................    for (i = 0; i <= 8; i++) 
....................    { 
....................       t2 = t2 * t; 
....................       y = y + p_64[i] * t2; 
....................    } 
....................  
....................    if (quad == 2 || quad == 1) 
....................       y = -y;  // correct sign 
....................  
....................    return (y); 
.................... } 
....................  
.................... #endif 
....................  
.................... //////////////////////////////////////////////////////////////////////////// 
.................... //   float sin(float x) 
.................... //////////////////////////////////////////////////////////////////////////// 
.................... // Description : returns the sine value of the angle x, which is in radian 
.................... // Date : 9/20/2001 
.................... // 
.................... float32 sin(float32 x) 
.................... { 
....................    return cos(x - PI_DIV_BY_TWO); 
.................... } 
....................  
.................... //Overloaded functions for sin() for PCD 
.................... // Overloaded function sin() for data type - Float48 
.................... #if defined(__PCD__) 
.................... float48 sin(float48 x) 
.................... { 
....................    return cos(x - PI_DIV_BY_TWO); 
.................... } 
....................  
.................... // Overloaded function sin() for data type - Float48 
.................... float64 sin(float64 x) 
.................... { 
....................    return cos(x - PI_DIV_BY_TWO); 
.................... } 
.................... #endif 
....................  
.................... //////////////////////////////////////////////////////////////////////////// 
.................... //   float tan(float x) 
.................... //////////////////////////////////////////////////////////////////////////// 
.................... // Description : returns the tangent value of the angle x, which is in radian 
.................... // Date : 9/20/2001 
.................... // 
.................... float32 tan(float32 x) 
.................... { 
....................    float32 c, s; 
....................  
....................    c = cos(x); 
....................    if (c == 0.0) 
....................       return (1.0e+36); 
....................  
....................    s = sin(x); 
....................    return(s/c); 
.................... } 
.................... //Overloaded functions for tan() for PCD 
.................... // Overloaded function tan() for data type - Float48 
.................... #if defined(__PCD__) 
.................... float48 tan(float48 x) 
.................... { 
....................    float48 c, s; 
....................  
....................    c = cos(x); 
....................    if (c == 0.0) 
....................       return (1.0e+36); 
....................  
....................    s = sin(x); 
....................    return(s/c); 
.................... } 
....................  
.................... // Overloaded function tan() for data type - Float48 
.................... float64 tan(float64 x) 
.................... { 
....................    float64 c, s; 
....................  
....................    c = cos(x); 
....................    if (c == 0.0) 
....................       return (1.0e+36); 
....................  
....................    s = sin(x); 
....................    return(s/c); 
.................... } 
.................... #endif 
....................  
.................... float32 const pas[3] = {0.49559947, -4.6145309, 5.6036290}; 
.................... float32 const qas[3] = {1.0000000,  -5.5484666, 5.6036290}; 
....................  
.................... float32 ASIN_COS(float32 x, unsigned int8 n) 
.................... { 
....................    float32 y, res, r, y2; 
....................    int1 s; 
....................    #ifdef _ERRNO 
....................    if(x <-1 || x > 1) 
....................    { 
....................       errno=EDOM; 
....................    } 
....................    #endif 
....................    s = 0; 
....................    y = x; 
....................  
....................    if (x < 0) 
....................    { 
....................       s = 1; 
....................       y = -y; 
....................    } 
....................  
....................    if (y > 0.5) 
....................    { 
....................       y = sqrt((1.0 - y)*0.5); 
....................       n += 2; 
....................    } 
....................  
....................    y2=y*y; 
....................  
....................    res = pas[0]*y2 + pas[1]; 
....................    res = res*y2 + pas[2]; 
....................  
....................    r = qas[0]*y2 + qas[1]; 
....................    r = r*y2 + qas[2]; 
....................  
....................    res = y*res/r; 
....................  
....................    if (n & 2)     // |x| > 0.5 
....................       res = PI_DIV_BY_TWO - 2.0*res; 
....................    if (s) 
....................       res = -res; 
....................    if (n & 1)           // take arccos 
....................       res = PI_DIV_BY_TWO - res; 
....................  
....................    return(res); 
.................... } 
....................  
....................  
.................... //Overloaded functions for ASIN_COS() for PCD 
.................... // Overloaded function ASIN_COS() for data type - Float48 
.................... #if defined(__PCD__) 
.................... float48 ASIN_COS(float48 x, unsigned int8 n) 
.................... { 
....................    float48 y, res, r, y2; 
....................    int1 s; 
....................    #ifdef _ERRNO 
....................    if(x <-1 || x > 1) 
....................    { 
....................       errno=EDOM; 
....................    } 
....................    #endif 
....................    s = 0; 
....................    y = x; 
....................  
....................    if (x < 0) 
....................    { 
....................       s = 1; 
....................       y = -y; 
....................    } 
....................  
....................    if (y > 0.5) 
....................    { 
....................       y = sqrt((1.0 - y)*0.5); 
....................       n += 2; 
....................    } 
....................  
....................    y2=y*y; 
....................  
....................    res = pas[0]*y2 + pas[1]; 
....................    res = res*y2 + pas[2]; 
....................  
....................    r = qas[0]*y2 + qas[1]; 
....................    r = r*y2 + qas[2]; 
....................  
....................    res = y*res/r; 
....................  
....................    if (n & 2)     // |x| > 0.5 
....................       res = PI_DIV_BY_TWO - 2.0*res; 
....................    if (s) 
....................       res = -res; 
....................    if (n & 1)           // take arccos 
....................       res = PI_DIV_BY_TWO - res; 
....................  
....................    return(res); 
.................... } 
....................  
.................... // Overloaded function ASIN_COS() for data type - Float64 
.................... double pas_64[5]={1.000000000000000,-2.069938587724477,1.421444580548907, 
....................                  -0.360690137621842,0.024929451660228}; 
....................  
.................... double qas_64[5]={-2.236605254391134,1.719212122946451,-0.524122954476133, 
....................                    0.052808872045749,-0.000662536036570}; 
....................                     
.................... float64 ASIN_COS(float64 x, unsigned int8 n) 
.................... { 
....................    float64 y, res, r, y2; 
....................    int1 s; 
....................    #ifdef _ERRNO 
....................    if(x <-1 || x > 1) 
....................    { 
....................       errno=EDOM; 
....................    } 
....................    #endif 
....................    s = 0; 
....................    y = x; 
....................  
....................    if (x < 0) 
....................    { 
....................       s = 1; 
....................       y = -y; 
....................    } 
....................  
....................    if (y > 0.5) 
....................    { 
....................       y = sqrt((1.0 - y)*0.5); 
....................       n += 2; 
....................    } 
....................  
....................    y2=y*y; 
....................  
....................    res = pas_64[4]*y2 + pas_64[3]; 
....................    res = res*y2 + pas_64[2]; 
....................    res = res*y2 + pas_64[1]; 
....................    res = res*y2 + pas_64[0]; 
....................  
....................    r = qas_64[4]*y2 + qas_64[3]; 
....................    r = r*y2 + qas_64[2]; 
....................    r = r*y2 + qas_64[1]; 
....................    r = r*y2 + qas_64[0]; 
....................    r = r*y2 + 1.0; 
....................  
....................    res = y*res/r; 
....................  
....................    if (n & 2)     // |x| > 0.5 
....................       res = PI_DIV_BY_TWO - 2.0*res; 
....................    if (s) 
....................       res = -res; 
....................    if (n & 1)           // take arccos 
....................       res = PI_DIV_BY_TWO - res; 
....................  
....................    return(res); 
.................... } 
.................... #endif 
....................  
.................... //////////////////////////////////////////////////////////////////////////// 
.................... //   float asin(float x) 
.................... //////////////////////////////////////////////////////////////////////////// 
.................... // Description : returns the arcsine value of the value x. 
.................... // Date : N/A 
.................... // 
.................... float32 asin(float32 x) 
.................... { 
....................    float32 r; 
....................  
....................    r = ASIN_COS(x, 0); 
....................    return(r); 
.................... } 
.................... //Overloaded functions for asin() for PCD 
.................... // Overloaded function asin() for data type - Float48 
.................... #if defined(__PCD__) 
.................... float48 asin(float48 x) 
.................... { 
....................    float48 r; 
....................  
....................    r = ASIN_COS(x, 0); 
....................    return(r); 
.................... } 
....................  
.................... // Overloaded function asin() for data type - Float64 
.................... float64 asin(float64 x) 
.................... { 
....................    float64 r; 
....................  
....................    r = ASIN_COS(x, 0); 
....................    return(r); 
.................... } 
.................... #endif 
....................  
.................... //////////////////////////////////////////////////////////////////////////// 
.................... //   float acos(float x) 
.................... //////////////////////////////////////////////////////////////////////////// 
.................... // Description : returns the arccosine value of the value x. 
.................... // Date : N/A 
.................... // 
.................... float32 acos(float32 x) 
.................... { 
....................    float32 r; 
....................  
....................    r = ASIN_COS(x, 1); 
....................    return(r); 
.................... } 
.................... //Overloaded functions for acos() for PCD 
.................... // Overloaded function acos() for data type - Float48 
.................... #if defined(__PCD__) 
.................... float48 acos(float48 x) 
.................... { 
....................    float48 r; 
....................  
....................    r = ASIN_COS(x, 1); 
....................    return(r); 
.................... } 
....................  
.................... // Overloaded function acos() for data type - Float64 
.................... float64 acos(float64 x) 
.................... { 
....................    float64 r; 
....................  
....................    r = ASIN_COS(x, 1); 
....................    return(r); 
.................... } 
.................... #endif 
....................  
.................... float32 const pat[4] = {0.17630401, 5.6710795, 22.376096, 19.818457}; 
.................... float32 const qat[4] = {1.0000000,  11.368190, 28.982246, 19.818457}; 
....................  
.................... //////////////////////////////////////////////////////////////////////////// 
.................... //   float atan(float x) 
.................... //////////////////////////////////////////////////////////////////////////// 
.................... // Description : returns the arctangent value of the value x. 
.................... // Date : N/A 
.................... // 
.................... float32 atan(float32 x) 
.................... { 
....................    float32 y, res, r; 
....................    int1 s, flag; 
....................  
....................    s = 0; 
....................    flag = 0; 
....................    y = x; 
....................  
....................    if (x < 0) 
....................    { 
....................       s = 1; 
....................       y = -y; 
....................    } 
....................  
....................    if (y > 1.0) 
....................    { 
....................       y = 1.0/y; 
....................       flag = 1; 
....................    } 
....................  
....................    res = pat[0]*y*y + pat[1]; 
....................    res = res*y*y + pat[2]; 
....................    res = res*y*y + pat[3]; 
....................  
....................    r = qat[0]*y*y + qat[1]; 
....................    r = r*y*y + qat[2]; 
....................    r = r*y*y + qat[3]; 
....................  
....................    res = y*res/r; 
....................  
....................  
....................    if (flag)                              // for |x| > 1 
....................       res = PI_DIV_BY_TWO - res; 
....................    if (s) 
....................       res = -res; 
....................  
....................    return(res); 
.................... } 
.................... //Overloaded functions for atan() for PCD 
.................... // Overloaded function atan() for data type - Float48 
.................... #if defined(__PCD__) 
.................... float48 atan(float48 x) 
.................... { 
....................    float48 y, res, r; 
....................    int1 s, flag; 
....................  
....................    s = 0; 
....................    flag = 0; 
....................    y = x; 
....................  
....................    if (x < 0) 
....................    { 
....................       s = 1; 
....................       y = -y; 
....................    } 
....................  
....................    if (y > 1.0) 
....................    { 
....................       y = 1.0/y; 
....................       flag = 1; 
....................    } 
....................  
....................    res = pat[0]*y*y + pat[1]; 
....................    res = res*y*y + pat[2]; 
....................    res = res*y*y + pat[3]; 
....................  
....................    r = qat[0]*y*y + qat[1]; 
....................    r = r*y*y + qat[2]; 
....................    r = r*y*y + qat[3]; 
....................  
....................    res = y*res/r; 
....................  
....................  
....................    if (flag)                              // for |x| > 1 
....................       res = PI_DIV_BY_TWO - res; 
....................    if (s) 
....................       res = -res; 
....................  
....................    return(res); 
.................... } 
....................  
.................... float64 pat_64[6]={0.999999999999999,2.249923645595566,1.771541617806449, 
....................                    0.579678874003185,0.072162702162882,0.002281100141660}; 
....................  
.................... float64 qat_64[6]={2.583256978928510,2.432627277466967,1.016760379885393, 
....................                    0.182482977188688,0.011155377971690,0.000100013019160}; 
.................... // Overloaded function atan() for data type - Float64 
.................... float64 atan(float64 x) 
.................... { 
....................    float64 y,y2, res, r; 
....................    int1 s, flag; 
....................  
....................    s = 0; 
....................    flag = 0; 
....................    y = x; 
....................  
....................    if (x < 0) 
....................    { 
....................       s = 1; 
....................       y = -y; 
....................    } 
....................  
....................    if (y > 1.0) 
....................    { 
....................       y = 1.0/y; 
....................       flag = 1; 
....................    } 
....................    y2 = y*y; 
....................    res = pat_64[5]*y2 + pat_64[4]; 
....................    res = res*y2 + pat_64[3]; 
....................    res = res*y2 + pat_64[2]; 
....................    res = res*y2 + pat_64[1]; 
....................    res = res*y2 + pat_64[0]; 
....................  
....................    r = qat_64[5]*y2 + qat_64[4]; 
....................    r = r*y2 + qat_64[3]; 
....................    r = r*y2 + qat_64[2]; 
....................    r = r*y2 + qat_64[1]; 
....................    r = r*y2 + qat_64[0]; 
....................    r = r*y2 + 1.0; 
....................  
....................    res = y*res/r; 
....................  
....................  
....................    if (flag)                              // for |x| > 1 
....................       res = PI_DIV_BY_TWO - res; 
....................    if (s) 
....................       res = -res; 
....................  
....................    return(res); 
.................... } 
.................... #endif 
....................  
.................... ///////////////////////////////////////////////////////////////////////////// 
.................... //   float atan2(float y, float x) 
.................... ///////////////////////////////////////////////////////////////////////////// 
.................... // Description :computes the principal value of arc tangent of y/x, using the 
.................... // signs of both the arguments to determine the quadrant of the return value 
.................... // Returns : returns the arc tangent of y/x. 
.................... // Date : N/A 
.................... // 
....................  
.................... float32 atan2(float32 y,float32 x) 
.................... { 
....................    float32 z; 
....................    int1 sign; 
....................    unsigned int8 quad; 
....................    sign=0; 
....................    quad=0; //quadrant 
....................    quad=((y<=0.0)?((x<=0.0)?3:4):((x<0.0)?2:1)); 
....................    if(y<0.0) 
....................    { 
....................       sign=1; 
....................       y=-y; 
....................    } 
....................    if(x<0.0) 
....................    { 
....................       x=-x; 
....................    } 
....................    if (x==0.0) 
....................    { 
....................       if(y==0.0) 
....................       { 
....................       #ifdef _ERRNO 
....................       { 
....................          errno=EDOM; 
....................       } 
....................       #endif 
....................       } 
....................       else 
....................       { 
....................          if(sign) 
....................          { 
....................          return (-(PI_DIV_BY_TWO)); 
....................          } 
....................          else 
....................          { 
....................          return (PI_DIV_BY_TWO); 
....................          } 
....................       } 
....................    } 
....................    else 
....................    { 
....................       z=y/x; 
....................       switch(quad) 
....................       { 
....................          case 1: 
....................          { 
....................             return atan(z); 
....................             break; 
....................          } 
....................          case 2: 
....................          { 
.................... //            return (atan(z)+PI_DIV_BY_TWO);  //2L3122 
....................             return (PI-atan(z)); 
....................             break; 
....................          } 
....................          case 3: 
....................          { 
....................             return (atan(z)-PI); 
....................             break; 
....................          } 
....................          case 4: 
....................          { 
....................             return (-atan(z)); 
....................             break; 
....................          } 
....................       } 
....................    } 
.................... } 
....................  
.................... //Overloaded functions for atan2() for PCD 
.................... // Overloaded function atan2() for data type - Float48 
.................... #if defined(__PCD__) 
.................... float48 atan2(float48 y,float48 x) 
.................... { 
....................    float48 z; 
....................    int1 sign; 
....................    unsigned int8 quad; 
....................    sign=0; 
....................    quad=0; //quadrant 
....................    quad=((y<=0.0)?((x<=0.0)?3:4):((x<0.0)?2:1)); 
....................    if(y<0.0) 
....................    { 
....................       sign=1; 
....................       y=-y; 
....................    } 
....................    if(x<0.0) 
....................    { 
....................       x=-x; 
....................    } 
....................    if (x==0.0) 
....................    { 
....................       if(y==0.0) 
....................       { 
....................       #ifdef _ERRNO 
....................       { 
....................          errno=EDOM; 
....................       } 
....................       #endif 
....................       } 
....................       else 
....................       { 
....................          if(sign) 
....................          { 
....................          return (-(PI_DIV_BY_TWO)); 
....................          } 
....................          else 
....................          { 
....................          return (PI_DIV_BY_TWO); 
....................          } 
....................       } 
....................    } 
....................    else 
....................    { 
....................       z=y/x; 
....................       switch(quad) 
....................       { 
....................          case 1: 
....................          { 
....................             return atan(z); 
....................             break; 
....................          } 
....................          case 2: 
....................          { 
.................... //            return (atan(z)+PI_DIV_BY_TWO);  //2L3122 
....................             return (PI-atan(z)); 
....................             break; 
....................          } 
....................          case 3: 
....................          { 
....................             return (atan(z)-PI); 
....................             break; 
....................          } 
....................          case 4: 
....................          { 
....................             return (-atan(z)); 
....................             break; 
....................          } 
....................       } 
....................    } 
.................... } 
....................  
.................... // Overloaded function atan2() for data type - Float64 
.................... float64 atan2(float64 y,float64 x) 
.................... { 
....................    float64 z; 
....................    int1 sign; 
....................    unsigned int8 quad; 
....................    sign=0; 
....................    quad=0; //quadrant 
....................    quad=((y<=0.0)?((x<=0.0)?3:4):((x<0.0)?2:1)); 
....................    if(y<0.0) 
....................    { 
....................       sign=1; 
....................       y=-y; 
....................    } 
....................    if(x<0.0) 
....................    { 
....................       x=-x; 
....................    } 
....................    if (x==0.0) 
....................    { 
....................       if(y==0.0) 
....................       { 
....................       #ifdef _ERRNO 
....................       { 
....................          errno=EDOM; 
....................       } 
....................       #endif 
....................       } 
....................       else 
....................       { 
....................          if(sign) 
....................          { 
....................          return (-(PI_DIV_BY_TWO)); 
....................          } 
....................          else 
....................          { 
....................          return (PI_DIV_BY_TWO); 
....................          } 
....................       } 
....................    } 
....................    else 
....................    { 
....................       z=y/x; 
....................       switch(quad) 
....................       { 
....................          case 1: 
....................          { 
....................             return atan(z); 
....................             break; 
....................          } 
....................          case 2: 
....................          { 
.................... //            return (atan(z)+PI_DIV_BY_TWO);  //2L3122 
....................             return (PI-atan(z)); 
....................             break; 
....................          } 
....................          case 3: 
....................          { 
....................             return (atan(z)-PI); 
....................             break; 
....................          } 
....................          case 4: 
....................          { 
....................             return (-atan(z)); 
....................             break; 
....................          } 
....................       } 
....................    } 
.................... } 
.................... #endif 
....................  
.................... //////////////////// Hyperbolic functions //////////////////// 
....................  
.................... //////////////////////////////////////////////////////////////////////////// 
.................... //   float cosh(float x) 
.................... //////////////////////////////////////////////////////////////////////////// 
.................... // Description : Computes the hyperbolic cosine value of x 
.................... // Returns : returns the hyperbolic cosine value of x 
.................... // Date : N/A 
.................... // 
....................  
.................... float32 cosh(float32 x) 
.................... { 
....................    return ((exp(x)+exp(-x))*0.5); 
.................... } 
.................... //Overloaded functions for cosh() for PCD 
.................... // Overloaded function cosh() for data type - Float48 
.................... #if defined(__PCD__) 
.................... float48 cosh(float48 x) 
.................... { 
....................    return ((exp(x)+exp(-x))*0.5); 
.................... } 
....................  
.................... // Overloaded function cosh() for data type - Float64 
.................... float64 cosh(float64 x) 
.................... { 
....................    return ((exp(x)+exp(-x))*0.5); 
.................... } 
.................... #endif 
....................  
.................... //////////////////////////////////////////////////////////////////////////// 
.................... //   float sinh(float x) 
.................... //////////////////////////////////////////////////////////////////////////// 
.................... // Description : Computes the hyperbolic sine value of x 
.................... // Returns : returns the hyperbolic sine value of x 
.................... // Date : N/A 
.................... // 
....................  
.................... float32 sinh(float32 x) 
.................... { 
....................  
....................    return ((exp(x) - exp(-x))*0.5); 
.................... } 
.................... //Overloaded functions for sinh() for PCD 
.................... // Overloaded function sinh() for data type - Float48 
.................... #if defined(__PCD__) 
.................... float48 sinh(float48 x) 
.................... { 
....................  
....................    return ((exp(x) - exp(-x))*0.5); 
.................... } 
....................  
.................... // Overloaded function sinh() for data type - Float48 
.................... float64 sinh(float64 x) 
.................... { 
....................  
....................    return ((exp(x) - exp(-x))*0.5); 
.................... } 
.................... #endif 
....................  
.................... //////////////////////////////////////////////////////////////////////////// 
.................... //   float tanh(float x) 
.................... //////////////////////////////////////////////////////////////////////////// 
.................... // Description : Computes the hyperbolic tangent value of x 
.................... // Returns : returns the hyperbolic tangent value of x 
.................... // Date : N/A 
.................... // 
....................  
.................... float32 tanh(float32 x) 
.................... { 
....................    return(sinh(x)/cosh(x)); 
.................... } 
.................... //Overloaded functions for tanh() for PCD 
.................... // Overloaded function tanh() for data type - Float48 
.................... #if defined(__PCD__) 
.................... float48 tanh(float48 x) 
.................... { 
....................    return(sinh(x)/cosh(x)); 
.................... } 
....................  
.................... // Overloaded function tanh() for data type - Float64 
.................... float64 tanh(float64 x) 
.................... { 
....................    return(sinh(x)/cosh(x)); 
.................... } 
.................... #endif 
....................  
.................... //////////////////////////////////////////////////////////////////////////// 
.................... //   float frexp(float x, signed int *exp) 
.................... //////////////////////////////////////////////////////////////////////////// 
.................... // Description : breaks a floating point number into a normalized fraction and an integral 
.................... // power of 2. It stores the integer in the signed int object pointed to by exp. 
.................... // Returns : returns the value x, such that x is a double with magnitude in the interval 
.................... // [1/2,1) or zero, and value equals x times 2 raised to the power *exp.If value is zero, 
.................... // both parts of the result are zero. 
.................... // Date : N/A 
.................... // 
....................  
.................... #define LOG2 .30102999566398119521 
.................... #define LOG2_INV 3.32192809488736234787 
.................... float32 frexp(float32 x, signed int8 *exp) 
.................... { 
....................    float32 res; 
....................    int1 sign = 0; 
....................    if(x == 0.0) 
....................    { 
....................       *exp=0; 
....................       return (0.0); 
....................    } 
....................    if(x < 0.0) 
....................    { 
....................      x=-x; 
....................      sign=1; 
....................    } 
....................    if (x > 1.0) 
....................    { 
....................       *exp=(ceil(log10(x)*LOG2_INV)); 
....................       res=x/(pow(2, *exp)); 
....................       if (res == 1) 
....................       { 
....................          *exp=*exp+1; 
....................           res=.5; 
....................       } 
....................    } 
....................    else 
....................    { 
....................       if(x < 0.5) 
....................       { 
....................          *exp=-1; 
....................          res=x*2; 
....................       } 
....................       else 
....................       { 
....................          *exp=0; 
....................           res=x; 
....................       } 
....................    } 
....................    if(sign) 
....................    { 
....................       res=-res; 
....................    } 
....................    return res; 
.................... } 
....................  
.................... //Overloaded functions for frexp() for PCD 
.................... // Overloaded function frexp() for data type - Float48 
.................... #if defined(__PCD__) 
.................... float48 frexp(float48 x, signed int8 *exp) 
.................... { 
....................    float48 res; 
....................    int1 sign = 0; 
....................    if(x == 0.0) 
....................    { 
....................       *exp=0; 
....................       return (0.0); 
....................    } 
....................    if(x < 0.0) 
....................    { 
....................      x=-x; 
....................      sign=1; 
....................    } 
....................    if (x > 1.0) 
....................    { 
....................       *exp=(ceil(log10(x)*LOG2_INV)); 
....................       res=x/(pow(2, *exp)); 
....................       if (res == 1) 
....................       { 
....................          *exp=*exp+1; 
....................           res=.5; 
....................       } 
....................    } 
....................    else 
....................    { 
....................       if(x < 0.5) 
....................       { 
....................          *exp=-1; 
....................          res=x*2; 
....................       } 
....................       else 
....................       { 
....................          *exp=0; 
....................           res=x; 
....................       } 
....................    } 
....................    if(sign) 
....................    { 
....................       res=-res; 
....................    } 
....................    return res; 
.................... } 
....................  
.................... // Overloaded function frexp() for data type - Float64 
.................... float64 frexp(float64 x, signed int8 *exp) 
.................... { 
....................    float64 res; 
....................    int1 sign = 0; 
....................    if(x == 0.0) 
....................    { 
....................       *exp=0; 
....................       return (0.0); 
....................    } 
....................    if(x < 0.0) 
....................    { 
....................      x=-x; 
....................      sign=1; 
....................    } 
....................    if (x > 1.0) 
....................    { 
....................       *exp=(ceil(log10(x)*LOG2_INV)); 
....................       res=x/(pow(2, *exp)); 
....................       if (res == 1) 
....................       { 
....................          *exp=*exp+1; 
....................           res=.5; 
....................       } 
....................    } 
....................    else 
....................    { 
....................       if(x < 0.5) 
....................       { 
....................          *exp=-1; 
....................          res=x*2; 
....................       } 
....................       else 
....................       { 
....................          *exp=0; 
....................           res=x; 
....................       } 
....................    } 
....................    if(sign) 
....................    { 
....................       res=-res; 
....................    } 
....................    return res; 
.................... } 
.................... #endif 
....................  
.................... ////////////////////////////////////////////////////////////////////////////// 
.................... //   float ldexp(float x, signed int *exp) 
.................... ////////////////////////////////////////////////////////////////////////////// 
.................... // Description : multiplies a floating point number by an integral power of 2. 
.................... // Returns : returns the value of x times 2 raised to the power exp. 
.................... // Date : N/A 
.................... // 
....................  
.................... float32 ldexp(float32 value, signed int8 exp) 
.................... { 
....................    return (value * pow(2,exp)); 
.................... } 
.................... //Overloaded functions for ldexp() for PCD 
.................... // Overloaded function ldexp() for data type - Float48 
....................  
.................... #if defined(__PCD__) 
.................... float48 ldexp(float48 value, signed int8 exp) 
.................... { 
....................    return (value * pow(2,exp)); 
.................... } 
.................... // Overloaded function ldexp() for data type - Float64 
.................... float64 ldexp(float64 value, signed int8 exp) 
.................... { 
....................    return (value * pow(2,exp)); 
.................... } 
.................... #endif 
....................  
.................... #endif 
....................  
....................  
.................... #ifndef FUNCIONES_H 
.................... #define FUNCIONES_H 
.................... //Declaracion de estados 
....................  
.................... #define 	PUNTO_TENS_CORR	0 
.................... #define 	CONVERSION_DESFASE	1 
.................... #define 	TENS_CORR_RMS	2 
.................... #define 	CALCULO_POT_ENER	3 
.................... #define 	MOSTRAR_DATOS	4 
....................  
.................... //Prototipos de los eventos 
.................... void maquina_estado(void); 
....................  
.................... #endif 
....................  
....................  
....................  
....................  
.................... //Implementacion Switch-Case 
....................  
.................... /** 
.................... *	\fn void maquina_estado() 
.................... *	\brief Implementacion Switch-Case 
.................... *	\details  
.................... *	\author Postemsky Marcos 
.................... *	\date 17-09-2016 11:39:08 
....................  **/ 
.................... unsigned long punto1, punto2; 
.................... int8 pos_V,pos_I,pos_V_A,pos_I_A; 
.................... int control_V, control_I; 
.................... int desfase; 
.................... float tension, corriente, tension_RMS,corriente_RMS, t_desfase, potencia_ins,angulo; 
....................  
....................  
.................... #INT_RTCC                // interrupcion para demora de 500 us 
.................... void interrtimer_0(){ 
....................     set_timer0(0x1D);   // se carga 29 para un desborde en 500 us teniendo en cuenta los tiempos en C 
*
00AE:  CLRF   FD7
00B0:  MOVLW  1D
00B2:  MOVWF  FD6
....................     pulso_timer++; 
00B4:  INCF   23,F
00B6:  BCF    FF2.2
00B8:  GOTO   0060
....................    } 
....................  
.................... void maquina_estado() 
.................... { 
.................... 		static int estado = PUNTO_TENS_CORR; 
....................  
.................... 		switch(estado) 
*
101E:  MOVF   4C,W
1020:  XORLW  00
1022:  BZ    103C
1024:  XORLW  01
1026:  BZ    10A4
1028:  XORLW  03
102A:  BTFSC  FD8.2
102C:  BRA    11AA
102E:  XORLW  01
1030:  BTFSC  FD8.2
1032:  BRA    127A
1034:  XORLW  07
1036:  BTFSC  FD8.2
1038:  BRA    1436
103A:  BRA    14F6
.................... 		{ 
.................... 			case PUNTO_TENS_CORR: 
....................                 set_adc_channel(0);           //Habilitacin canal 
103C:  MOVLW  00
103E:  MOVWF  01
1040:  MOVF   FC2,W
1042:  ANDLW  C3
1044:  IORWF  01,W
1046:  MOVWF  FC2
....................                 punto1= leer_ADC(2); 
1048:  MOVLW  02
104A:  MOVWF  50
104C:  GOTO   0308
1050:  MOVFF  02,26
1054:  MOVFF  01,25
....................                 punto2= read_adc(); // comprobar si funciona con el tiempo de demora de la lectura del externo 
1058:  BSF    FC2.1
105A:  BTFSC  FC2.1
105C:  BRA    105A
105E:  CLRF   28
1060:  MOVFF  FC4,27
....................                 // convierte los valores de long a float 
....................                 tension=punto1; 
1064:  MOVFF  26,80
1068:  MOVFF  25,7F
106C:  CALL   0370
1070:  MOVFF  03,33
1074:  MOVFF  02,32
1078:  MOVFF  01,31
107C:  MOVFF  00,30
....................                 corriente=punto2; 
1080:  MOVFF  28,80
1084:  MOVFF  27,7F
1088:  CALL   0370
108C:  MOVFF  03,37
1090:  MOVFF  02,36
1094:  MOVFF  01,35
1098:  MOVFF  00,34
....................                 contador++; 
109C:  INCF   22,F
.................... 					estado = CONVERSION_DESFASE; 
109E:  MOVLW  01
10A0:  MOVWF  4C
.................... 		 
.................... 				 
....................  
.................... 				break; 
10A2:  BRA    14F8
.................... 			 
.................... 			case CONVERSION_DESFASE: 
....................                 tension= (tension*5)/4096; 
10A4:  MOVFF  33,82
10A8:  MOVFF  32,81
10AC:  MOVFF  31,80
10B0:  MOVFF  30,7F
10B4:  CLRF   x86
10B6:  CLRF   x85
10B8:  MOVLW  20
10BA:  MOVWF  x84
10BC:  MOVLW  81
10BE:  MOVWF  x83
10C0:  CALL   03A6
10C4:  MOVFF  03,50
10C8:  MOVFF  02,4F
10CC:  MOVFF  01,4E
10D0:  MOVFF  00,4D
10D4:  MOVFF  03,62
10D8:  MOVFF  02,61
10DC:  MOVFF  01,60
10E0:  MOVFF  00,5F
10E4:  CLRF   x66
10E6:  CLRF   x65
10E8:  CLRF   x64
10EA:  MOVLW  8B
10EC:  MOVWF  x63
10EE:  CALL   0498
10F2:  MOVFF  03,33
10F6:  MOVFF  02,32
10FA:  MOVFF  01,31
10FE:  MOVFF  00,30
....................                 corriente= (corriente*5)/1024; 
1102:  MOVFF  37,82
1106:  MOVFF  36,81
110A:  MOVFF  35,80
110E:  MOVFF  34,7F
1112:  CLRF   x86
1114:  CLRF   x85
1116:  MOVLW  20
1118:  MOVWF  x84
111A:  MOVLW  81
111C:  MOVWF  x83
111E:  CALL   03A6
1122:  MOVFF  03,50
1126:  MOVFF  02,4F
112A:  MOVFF  01,4E
112E:  MOVFF  00,4D
1132:  MOVFF  03,62
1136:  MOVFF  02,61
113A:  MOVFF  01,60
113E:  MOVFF  00,5F
1142:  CLRF   x66
1144:  CLRF   x65
1146:  CLRF   x64
1148:  MOVLW  89
114A:  MOVWF  x63
114C:  CALL   0498
1150:  MOVFF  03,37
1154:  MOVFF  02,36
1158:  MOVFF  01,35
115C:  MOVFF  00,34
....................                  
....................                 // Analisis del punto POSITVO O NEGATIVO 
....................                 // valor positivo estado=0-- valor negativo estado=1 
....................                  
....................                 //TENSION 
....................                 #asm 
....................                 clrf &pos_V; 
1160:  CLRF   29
....................                 btfsc (&tension + 0x01), 7; 
1162:  BTFSC  31.7
....................                 bsf &pos_V,0; 
1164:  BSF    29.0
....................                 #endasm 
.................... 				 
....................                 //CORRIENTE 
....................                 #asm 
....................                 clrf &pos_I; 
1166:  CLRF   2A
....................                 btfsc (&corriente + 0x01), 7; 
1168:  BTFSC  35.7
....................                 bsf &pos_I,0; 
116A:  BSF    2A.0
....................                 #endasm 
.................... 					 
....................                 if (pos_V==1 && contador!=0 && pos_V_A==0 && control_V != 0){ 
116C:  DECFSZ 29,W
116E:  BRA    1184
1170:  MOVF   22,F
1172:  BZ    1184
1174:  MOVF   2B,F
1176:  BNZ   1184
1178:  MOVF   2D,F
117A:  BZ    1184
....................                  control_V= contador; // tiempo en el que cruz la tension  
117C:  MOVFF  22,2D
....................                  desfase=1; 
1180:  MOVLW  01
1182:  MOVWF  2F
....................                 } 
....................                  
....................                 if (pos_I==1 && contador!=0 && pos_I_A==0 && control_I != 0){ 
1184:  DECFSZ 2A,W
1186:  BRA    119C
1188:  MOVF   22,F
118A:  BZ    119C
118C:  MOVF   2C,F
118E:  BNZ   119C
1190:  MOVF   2E,F
1192:  BZ    119C
....................                      
....................                  control_I= contador; // tiempo en el que cruz la corriente 
1194:  MOVFF  22,2E
....................                  desfase=2; 
1198:  MOVLW  02
119A:  MOVWF  2F
....................                 } 
....................                  
....................                 pos_V_A=pos_V; 
119C:  MOVFF  29,2B
....................                 pos_I_A=pos_I; 
11A0:  MOVFF  2A,2C
....................                  
....................                  
.................... 					estado = TENS_CORR_RMS; 
11A4:  MOVLW  02
11A6:  MOVWF  4C
.................... 		 
.................... 				 
....................  
.................... 				break; 
11A8:  BRA    14F8
.................... 			 
.................... 			case TENS_CORR_RMS: 
.................... 			 
.................... 				if((contador<60)&& (pulso_timer==1)) 
11AA:  MOVF   22,W
11AC:  SUBLW  3B
11AE:  BNC   126C
11B0:  DECFSZ 23,W
11B2:  BRA    126C
.................... 				{ 
.................... 					tension_RMS=tension_RMS+ tension * tension;       //calcula tension eficaz 
11B4:  MOVFF  33,82
11B8:  MOVFF  32,81
11BC:  MOVFF  31,80
11C0:  MOVFF  30,7F
11C4:  MOVFF  33,86
11C8:  MOVFF  32,85
11CC:  MOVFF  31,84
11D0:  MOVFF  30,83
11D4:  CALL   03A6
11D8:  BCF    FD8.1
11DA:  MOVFF  3B,82
11DE:  MOVFF  3A,81
11E2:  MOVFF  39,80
11E6:  MOVFF  38,7F
11EA:  MOVFF  03,86
11EE:  MOVFF  02,85
11F2:  MOVFF  01,84
11F6:  MOVFF  00,83
11FA:  CALL   05F2
11FE:  MOVFF  03,3B
1202:  MOVFF  02,3A
1206:  MOVFF  01,39
120A:  MOVFF  00,38
....................                     corriente_RMS= corriente_RMS+ corriente * corriente; // calcula corriente eficaz 
120E:  MOVFF  37,82
1212:  MOVFF  36,81
1216:  MOVFF  35,80
121A:  MOVFF  34,7F
121E:  MOVFF  37,86
1222:  MOVFF  36,85
1226:  MOVFF  35,84
122A:  MOVFF  34,83
122E:  CALL   03A6
1232:  BCF    FD8.1
1234:  MOVFF  3F,82
1238:  MOVFF  3E,81
123C:  MOVFF  3D,80
1240:  MOVFF  3C,7F
1244:  MOVFF  03,86
1248:  MOVFF  02,85
124C:  MOVFF  01,84
1250:  MOVFF  00,83
1254:  CALL   05F2
1258:  MOVFF  03,3F
125C:  MOVFF  02,3E
1260:  MOVFF  01,3D
1264:  MOVFF  00,3C
....................                     pulso_timer=0; 
1268:  CLRF   23
....................                      
.................... 					estado = PUNTO_TENS_CORR; 
126A:  CLRF   4C
.................... 		 
.................... 				} 
.................... 				if((contador==60)) 
126C:  MOVF   22,W
126E:  SUBLW  3C
1270:  BNZ   1278
.................... 				{ 
.................... 					disable_interrupts(INT_RTCC); 
1272:  BCF    FF2.5
.................... 					estado = CALCULO_POT_ENER; 
1274:  MOVLW  03
1276:  MOVWF  4C
.................... 		 
.................... 				} 
....................  
.................... 				break; 
1278:  BRA    14F8
.................... 			 
.................... 			case CALCULO_POT_ENER: 
.................... 			 
.................... 				tension_RMS= SQRT(tension_RMS/60); 
127A:  MOVFF  3B,62
127E:  MOVFF  3A,61
1282:  MOVFF  39,60
1286:  MOVFF  38,5F
128A:  CLRF   x66
128C:  CLRF   x65
128E:  MOVLW  70
1290:  MOVWF  x64
1292:  MOVLW  84
1294:  MOVWF  x63
1296:  CALL   0498
129A:  MOVFF  03,50
129E:  MOVFF  02,4F
12A2:  MOVFF  01,4E
12A6:  MOVFF  00,4D
12AA:  MOVFF  03,5E
12AE:  MOVFF  02,5D
12B2:  MOVFF  01,5C
12B6:  MOVFF  00,5B
12BA:  CALL   08D2
12BE:  MOVFF  03,3B
12C2:  MOVFF  02,3A
12C6:  MOVFF  01,39
12CA:  MOVFF  00,38
....................                 corriente_RMS= SQRT(corriente_RMS/60); 
12CE:  MOVFF  3F,62
12D2:  MOVFF  3E,61
12D6:  MOVFF  3D,60
12DA:  MOVFF  3C,5F
12DE:  CLRF   x66
12E0:  CLRF   x65
12E2:  MOVLW  70
12E4:  MOVWF  x64
12E6:  MOVLW  84
12E8:  MOVWF  x63
12EA:  CALL   0498
12EE:  MOVFF  03,50
12F2:  MOVFF  02,4F
12F6:  MOVFF  01,4E
12FA:  MOVFF  00,4D
12FE:  MOVFF  03,5E
1302:  MOVFF  02,5D
1306:  MOVFF  01,5C
130A:  MOVFF  00,5B
130E:  CALL   08D2
1312:  MOVFF  03,3F
1316:  MOVFF  02,3E
131A:  MOVFF  01,3D
131E:  MOVFF  00,3C
....................                  
....................                 if (desfase==2){ 
1322:  MOVF   2F,W
1324:  SUBLW  02
1326:  BNZ   13A8
....................                     t_desfase= (control_I-control_V); 
1328:  MOVF   2D,W
132A:  SUBWF  2E,W
132C:  CLRF   x80
132E:  MOVWF  x7F
1330:  CALL   0370
1334:  MOVFF  03,43
1338:  MOVFF  02,42
133C:  MOVFF  01,41
1340:  MOVFF  00,40
....................                     angulo= (t_desfase*pi)/20;      // angulo de desfase en radianes. 
1344:  MOVFF  43,82
1348:  MOVFF  42,81
134C:  MOVFF  41,80
1350:  MOVFF  40,7F
1354:  MOVLW  DB
1356:  MOVWF  x86
1358:  MOVLW  0F
135A:  MOVWF  x85
135C:  MOVLW  49
135E:  MOVWF  x84
1360:  MOVLW  80
1362:  MOVWF  x83
1364:  CALL   03A6
1368:  MOVFF  03,50
136C:  MOVFF  02,4F
1370:  MOVFF  01,4E
1374:  MOVFF  00,4D
1378:  MOVFF  03,62
137C:  MOVFF  02,61
1380:  MOVFF  01,60
1384:  MOVFF  00,5F
1388:  CLRF   x66
138A:  CLRF   x65
138C:  MOVLW  20
138E:  MOVWF  x64
1390:  MOVLW  83
1392:  MOVWF  x63
1394:  CALL   0498
1398:  MOVFF  03,4B
139C:  MOVFF  02,4A
13A0:  MOVFF  01,49
13A4:  MOVFF  00,48
....................                 }                 
....................                 
....................                 potencia_ins= tension_RMS*corriente_RMS* cos(angulo); 
13A8:  MOVFF  3B,82
13AC:  MOVFF  3A,81
13B0:  MOVFF  39,80
13B4:  MOVFF  38,7F
13B8:  MOVFF  3F,86
13BC:  MOVFF  3E,85
13C0:  MOVFF  3D,84
13C4:  MOVFF  3C,83
13C8:  CALL   03A6
13CC:  MOVFF  03,50
13D0:  MOVFF  02,4F
13D4:  MOVFF  01,4E
13D8:  MOVFF  00,4D
13DC:  MOVFF  4B,7A
13E0:  MOVFF  4A,79
13E4:  MOVFF  49,78
13E8:  MOVFF  48,77
13EC:  GOTO   0A16
13F0:  MOVFF  50,82
13F4:  MOVFF  4F,81
13F8:  MOVFF  4E,80
13FC:  MOVFF  4D,7F
1400:  MOVFF  03,86
1404:  MOVFF  02,85
1408:  MOVFF  01,84
140C:  MOVFF  00,83
1410:  CALL   03A6
1414:  MOVFF  03,47
1418:  MOVFF  02,46
141C:  MOVFF  01,45
1420:  MOVFF  00,44
....................                 //se limpian las variables para la prxima tanta de muestreo 
....................                 control_V=0;       
1424:  CLRF   2D
....................                 control_I=0; 
1426:  CLRF   2E
....................                 angulo=0; 
1428:  CLRF   4B
142A:  CLRF   4A
142C:  CLRF   49
142E:  CLRF   48
....................                  
.................... 					estado = MOSTRAR_DATOS; 
1430:  MOVLW  04
1432:  MOVWF  4C
.................... 				break; 
1434:  BRA    14F8
.................... 			 
.................... 			case MOSTRAR_DATOS: 
....................                 lcd_gotoxy(1,1); 
1436:  MOVLW  01
1438:  MOVWF  5C
143A:  MOVWF  5D
143C:  CALL   027A
....................                 printf(LCD_PUTC,"Potencia= \%f W",potencia_ins); 
1440:  MOVLW  BC
1442:  MOVWF  FF6
1444:  MOVLW  00
1446:  MOVWF  FF7
1448:  MOVLW  0A
144A:  MOVWF  4D
144C:  RCALL  0DB8
144E:  MOVLW  89
1450:  MOVWF  FE9
1452:  MOVFF  47,50
1456:  MOVFF  46,4F
145A:  MOVFF  45,4E
145E:  MOVFF  44,4D
1462:  MOVLW  02
1464:  MOVWF  51
1466:  RCALL  0EA4
1468:  MOVLW  20
146A:  MOVWF  5B
146C:  RCALL  0D3C
146E:  MOVLW  57
1470:  MOVWF  5B
1472:  RCALL  0D3C
....................                 lcd_gotoxy(1,2); 
1474:  MOVLW  01
1476:  MOVWF  5C
1478:  MOVLW  02
147A:  MOVWF  5D
147C:  CALL   027A
....................                 printf (LCD_PUTC, "T=\%f V  I=\%f A",tension_RMS,corriente_RMS); 
1480:  MOVLW  54
1482:  MOVWF  5B
1484:  RCALL  0D3C
1486:  MOVLW  3D
1488:  MOVWF  5B
148A:  RCALL  0D3C
148C:  MOVLW  89
148E:  MOVWF  FE9
1490:  MOVFF  3B,50
1494:  MOVFF  3A,4F
1498:  MOVFF  39,4E
149C:  MOVFF  38,4D
14A0:  MOVLW  02
14A2:  MOVWF  51
14A4:  RCALL  0EA4
14A6:  MOVLW  D0
14A8:  MOVWF  FF6
14AA:  MOVLW  00
14AC:  MOVWF  FF7
14AE:  MOVLW  06
14B0:  MOVWF  4D
14B2:  RCALL  0DB8
14B4:  MOVLW  89
14B6:  MOVWF  FE9
14B8:  MOVFF  3F,50
14BC:  MOVFF  3E,4F
14C0:  MOVFF  3D,4E
14C4:  MOVFF  3C,4D
14C8:  MOVLW  02
14CA:  MOVWF  51
14CC:  RCALL  0EA4
14CE:  MOVLW  20
14D0:  MOVWF  5B
14D2:  RCALL  0D3C
14D4:  MOVLW  41
14D6:  MOVWF  5B
14D8:  RCALL  0D3C
....................                 delay_ms(750); 
14DA:  MOVLW  03
14DC:  MOVWF  4D
14DE:  MOVLW  FA
14E0:  MOVWF  5C
14E2:  CALL   00DC
14E6:  DECFSZ 4D,F
14E8:  BRA    14DE
....................                 enable_interrupts(INT_RTCC); 
14EA:  BSF    FF2.5
....................                 set_timer0(0x1D);   // se carga 29 para un desborde en 500 us teniendo en cuenta los tiempos en C 
14EC:  CLRF   FD7
14EE:  MOVLW  1D
14F0:  MOVWF  FD6
.................... 					 
.................... 					estado = PUNTO_TENS_CORR; 
14F2:  CLRF   4C
.................... 		 
....................  
.................... 				break; 
14F4:  BRA    14F8
.................... 			 
.................... 			default: estado = PUNTO_TENS_CORR; 
14F6:  CLRF   4C
.................... 		} 
14F8:  GOTO   152A (RETURN)
....................  
....................  
.................... } 
....................  
.................... //Funciones asociadas a los eventos 
....................  
.................... /** 
.................... *	\fn int -(void) 
.................... *	\brief Resumen 
.................... *	\details Detalles 
.................... *	\author Postemsky Marcos 
.................... *	\date 17-09-2016 11:39:08 
.................... */ 
....................  
....................  
....................  

Configuration Fuses:
   Word  1: CC02   PLL3 CPUDIV1 NOUSBDIV HS FCMEN IESO
   Word  2: 1E3E   PUT BROWNOUT BORV21 VREGEN NOWDT WDT32768
   Word  3: 8700   CCP2C1 PBADEN LPT1OSC MCLR
   Word  4: 00A1   STVREN NOLVP ICSP2 NOXINST NODEBUG
   Word  5: C00F   NOPROTECT NOCPB NOCPD
   Word  6: E00F   NOWRT NOWRTC NOWRTB NOWRTD
   Word  7: 400F   NOEBTR NOEBTRB
